# Path: sample
# Arch: x86_64
# Object files:
[  0] linker synthesized
[  1] sample.o
[  2] /opt/local/boost_1_57_0/lib/libboost_system.dylib
[  3] /usr/local/lib/libstdc++.dylib
[  4] /usr/lib/libSystem.dylib
# Sections:
# Address	Size    	Segment	Section
0x100001764	0x00005415	__TEXT	__text
0x100006B7A	0x00000552	__TEXT	__stubs
0x1000070CC	0x000001B4	__TEXT	__stub_helper
0x100007280	0x00000B64	__TEXT	__const
0x100007DE8	0x00000269	__TEXT	__cstring
0x100008058	0x00003F78	__TEXT	__eh_frame
0x10000C000	0x000002A8	__DATA	__got
0x10000C2A8	0x00000010	__DATA	__nl_symbol_ptr
0x10000C2B8	0x00000718	__DATA	__la_symbol_ptr
0x10000C9D0	0x00000008	__DATA	__mod_init_func
0x10000CA00	0x00000A20	__DATA	__const
0x10000D420	0x00000751	__DATA	__gcc_except_tab
0x10000DB78	0x000000E0	__DATA	__data
0x10000DC58	0x0000000A	__DATA	__static_data
0x10000DC68	0x00000048	__DATA	__bss3
0x10000DCB0	0x00000018	__DATA	__bss4
# Symbols:
# Address	Size    	File  Name
0x100001764	0x00000F60	[  1] __ZN11websocketpp3md5L11md5_processEPNS0_11md5_state_sEPKh
0x1000026C4	0x000000FB	[  1] _main
0x1000027BF	0x000004AC	[  1] __Z41__static_initialization_and_destruction_0ii
0x100002C6B	0x00000015	[  1] __GLOBAL__sub_I_sample.cpp
0x100002C80	0x0000001C	[  1] __ZNSt9exceptionC2Ev
0x100002C9C	0x0000002C	[  1] __ZNSt13bad_exceptionC2Ev
0x100002CC8	0x0000002C	[  1] __ZNSt9bad_allocC2Ev
0x100002CF4	0x00000012	[  1] __ZnwmPv
0x100002D06	0x00000020	[  1] __ZNSt9exceptionC2ERKS_
0x100002D26	0x0000001A	[  1] __ZN5boost10error_infoINS_15throw_function_EPKcEC1ES3_
0x100002D40	0x0000001A	[  1] __ZN5boost10error_infoINS_11throw_file_EPKcEC1ES3_
0x100002D5A	0x00000016	[  1] __ZN5boost10error_infoINS_11throw_line_EiEC1Ei
0x100002D70	0x00000054	[  1] __ZN5boost9exceptionC2Ev
0x100002DC4	0x00000046	[  1] __ZN5boost9exceptionD2Ev
0x100002E0A	0x00000035	[  1] __ZN5boost16exception_detail10clone_baseD2Ev
0x100002E3F	0x000000FA	[  1] __ZN5boost16exception_detail20copy_boost_exceptionEPNS_9exceptionEPKS1_
0x100002F39	0x0000000A	[  1] __ZN5boost36throw_exception_assert_compatibilityERKSt9exception
0x100002F43	0x00000022	[  1] __ZN5boost6detail23atomic_exchange_and_addEPii
0x100002F65	0x00000015	[  1] __ZN5boost6detail16atomic_incrementEPi
0x100002F7A	0x00000032	[  1] __ZN5boost6detail15sp_counted_baseC2Ev
0x100002FAC	0x00000036	[  1] __ZN5boost6detail15sp_counted_baseD2Ev
0x100002FE2	0x0000002C	[  1] __ZN5boost6detail15sp_counted_base7destroyEv
0x10000300E	0x0000001E	[  1] __ZN5boost6detail15sp_counted_base12add_ref_copyEv
0x10000302C	0x00000050	[  1] __ZN5boost6detail15sp_counted_base7releaseEv
0x10000307C	0x00000044	[  1] __ZN5boost6detail15sp_counted_base12weak_releaseEv
0x1000030C0	0x00000016	[  1] __ZN5boost6detail12shared_countC1Ev
0x1000030D6	0x0000002A	[  1] __ZN5boost6detail12shared_countD1Ev
0x100003100	0x0000003C	[  1] __ZN5boost6detail12shared_countC1ERKS1_
0x10000313C	0x00000032	[  1] __ZN5boost6detail12shared_count4swapERS1_
0x10000316E	0x00000006	[  1] __ZN5boost6detail26sp_enable_shared_from_thisEz
0x100003174	0x0000000A	[  1] __ZN5boost4asio6detail11noncopyableC2Ev
0x10000317E	0x0000000A	[  1] __ZN5boost4asio6detail11noncopyableD2Ev
0x100003188	0x00000036	[  1] __ZN5boost6system14error_categoryD2Ev
0x1000031BE	0x0000001A	[  1] __ZNK5boost6system14error_categoryeqERKS1_
0x1000031D8	0x00000026	[  1] __ZN5boost6system15error_conditionC1EiRKNS0_14error_categoryE
0x1000031FE	0x00000040	[  1] __ZN5boost6systemeqERKNS0_15error_conditionES3_
0x10000323E	0x00000026	[  1] __ZN5boost6system10error_codeC1EiRKNS0_14error_categoryE
0x100003264	0x00000010	[  1] __ZNK5boost6system10error_code5valueEv
0x100003274	0x00000012	[  1] __ZNK5boost6system10error_code8categoryEv
0x100003286	0x00000050	[  1] __ZNK5boost6system10error_code7messageEv
0x1000032D6	0x00000006	[  1] __ZN5boost6system10error_code21unspecified_bool_trueEv
0x1000032DC	0x00000022	[  1] __ZNK5boost6system10error_codecvPFvvEEv
0x1000032FE	0x0000003C	[  1] __ZNK5boost6system14error_category23default_error_conditionEi
0x10000333A	0x00000050	[  1] __ZNK5boost6system14error_category10equivalentEiRKNS0_15error_conditionE
0x10000338A	0x00000054	[  1] __ZNK5boost6system14error_category10equivalentERKNS0_10error_codeEi
0x1000033DE	0x0000003C	[  1] __ZN5boost4asio6detail11throw_errorERKNS_6system10error_codeEPKc
0x10000341A	0x000000F4	[  1] __ZN5boost6system12system_errorC1ENS0_10error_codeEPKc
0x10000350E	0x00000052	[  1] __ZN5boost6system12system_errorD2Ev
0x100003560	0x00000052	[  1] __ZN5boost6system12system_errorD1Ev
0x1000035B2	0x00000026	[  1] __ZN5boost6system12system_errorD0Ev
0x1000035D8	0x00000116	[  1] __ZNK5boost6system12system_error4whatEv
0x1000036EE	0x00000051	[  1] __ZN5boost4asio6detail14do_throw_errorERKNS_6system10error_codeEPKc
0x10000373F	0x0000000B	[  1] __ZN5boost4asio5error19get_system_categoryEv
0x10000374A	0x00000012	[  1] __ZNK5boost4asio5error6detail14netdb_category4nameEv
0x10000375C	0x000001BD	[  1] __ZNK5boost4asio5error6detail14netdb_category7messageEi
0x100003919	0x00000063	[  1] __ZN5boost4asio5error18get_netdb_categoryEv
0x10000397C	0x00000012	[  1] __ZNK5boost4asio5error6detail17addrinfo_category4nameEv
0x10000398E	0x0000010F	[  1] __ZNK5boost4asio5error6detail17addrinfo_category7messageEi
0x100003A9D	0x00000063	[  1] __ZN5boost4asio5error21get_addrinfo_categoryEv
0x100003B00	0x00000012	[  1] __ZNK5boost4asio5error6detail13misc_category4nameEv
0x100003B12	0x000001BD	[  1] __ZNK5boost4asio5error6detail13misc_category7messageEi
0x100003CCF	0x00000062	[  1] __ZN5boost4asio5error17get_misc_categoryEv
0x100003D31	0x0000004F	[  1] __ZN5boost4asio6detail20posix_tss_ptr_createERm
0x100003D80	0x0000001A	[  1] __ZN5boost4asio10io_service2idC2Ev
0x100003D9A	0x0000001E	[  1] __ZN5boost10shared_ptrIKNS_16exception_detail10clone_baseEED1Ev
0x100003DB8	0x00000026	[  1] __ZN5boost13exception_ptrC1ERKNS_10shared_ptrIKNS_16exception_detail10clone_baseEEE
0x100003DDE	0x00000064	[  1] __ZN5boost16exception_detail10bad_alloc_D2Ev
0x100003E42	0x00000064	[  1] __ZN5boost16exception_detail10bad_alloc_D1Ev
0x100003EA6	0x0000000A	[  1] __ZThn40_N5boost16exception_detail10bad_alloc_D1Ev
0x100003EB0	0x00000026	[  1] __ZN5boost16exception_detail10bad_alloc_D0Ev
0x100003ED6	0x0000000A	[  1] __ZThn40_N5boost16exception_detail10bad_alloc_D0Ev
0x100003EE0	0x00000064	[  1] __ZN5boost16exception_detail14bad_exception_D2Ev
0x100003F44	0x00000064	[  1] __ZN5boost16exception_detail14bad_exception_D1Ev
0x100003FA8	0x0000000A	[  1] __ZThn40_N5boost16exception_detail14bad_exception_D1Ev
0x100003FB2	0x00000026	[  1] __ZN5boost16exception_detail14bad_exception_D0Ev
0x100003FD8	0x0000000A	[  1] __ZThn40_N5boost16exception_detail14bad_exception_D0Ev
0x100003FE2	0x0000006E	[  1] __ZN5boost9exceptionC2ERKS0_
0x100004050	0x0000001A	[  1] __ZN5boost13exception_ptrD1Ev
0x10000406A	0x00000026	[  1] __ZN5boost13exception_ptrC1ERKS0_
0x100004090	0x0000001E	[  1] __ZN5boost10shared_ptrIN8socketio23socketio_client_handlerEED1Ev
0x1000040AE	0x00000016	[  1] __ZN5boost16exception_detail12refcount_ptrINS0_20error_info_containerEEC1Ev
0x1000040C4	0x0000001A	[  1] __ZN5boost16exception_detail12refcount_ptrINS0_20error_info_containerEED1Ev
0x1000040DE	0x00000012	[  1] __ZNK5boost16exception_detail12refcount_ptrINS0_20error_info_containerEE3getEv
0x1000040F0	0x0000002C	[  1] __ZN5boost16exception_detail12refcount_ptrINS0_20error_info_containerEEaSERKS3_
0x10000411C	0x00000020	[  1] __ZN5boost16exception_detail10clone_baseC2ERKS1_
0x10000413C	0x00000074	[  1] __ZNSt13runtime_errorC2ERKS_
0x1000041B0	0x0000008C	[  1] __ZN5boost6system12system_errorC2ERKS1_
0x10000423C	0x00000088	[  1] __ZN5boost16exception_detail19error_info_injectorINS_6system12system_errorEEC2ERKS4_
0x1000042C4	0x000000B8	[  1] __ZN5boost16exception_detail10clone_implINS0_19error_info_injectorINS_6system12system_errorEEEEC1ERKS6_
0x10000437C	0x0000009A	[  1] __ZN5boost15throw_exceptionINS_6system12system_errorEEEvRKT_
0x100004416	0x0000001A	[  1] __ZN5boost4asio6detail7tss_ptrINS1_10call_stackINS1_15task_io_serviceENS1_27task_io_service_thread_infoEE7contextEEC1Ev
0x100004430	0x0000001A	[  1] __ZN5boost4asio10io_service2idD2Ev
0x10000444A	0x0000001A	[  1] __ZN5boost4asio6detail10service_idINS1_14kqueue_reactorEEC1Ev
0x100004464	0x0000001A	[  1] __ZN5boost4asio6detail10service_idINS1_15task_io_serviceEEC1Ev
0x10000447E	0x0000000A	[  1] __ZN5boost3argILi1EEC1Ev
0x100004488	0x0000000A	[  1] __ZN5boost3argILi2EEC1Ev
0x100004492	0x0000001A	[  1] __ZN5boost4asio6detail7tss_ptrINS1_10call_stackINS1_14strand_service11strand_implEhE7contextEEC1Ev
0x1000044AC	0x0000001A	[  1] __ZN5boost4asio6detail10service_idINS1_14strand_serviceEEC1Ev
0x1000044C6	0x0000000A	[  1] __ZN5boost3argILi3EEC1Ev
0x1000044D0	0x0000000A	[  1] __ZN5boost3argILi4EEC1Ev
0x1000044DA	0x0000000A	[  1] __ZN5boost3argILi5EEC1Ev
0x1000044E4	0x0000000A	[  1] __ZN5boost3argILi6EEC1Ev
0x1000044EE	0x0000000A	[  1] __ZN5boost3argILi7EEC1Ev
0x1000044F8	0x0000000A	[  1] __ZN5boost3argILi8EEC1Ev
0x100004502	0x0000000A	[  1] __ZN5boost3argILi9EEC1Ev
0x10000450C	0x0000001A	[  1] __ZNSaIiEC1Ev
0x100004526	0x0000001A	[  1] __ZNSaIiED2Ev
0x100004540	0x0000001A	[  1] __ZNSaIiED1Ev
0x10000455A	0x00000044	[  1] __ZNSt6vectorIiSaIiEED1Ev
0x10000459E	0x00000012	[  1] __ZNKSt16initializer_listIiE5beginEv
0x1000045B0	0x00000012	[  1] __ZNKSt16initializer_listIiE4sizeEv
0x1000045C2	0x00000036	[  1] __ZNKSt16initializer_listIiE3endEv
0x1000045F8	0x00000096	[  1] __ZNSt6vectorIiSaIiEEC1ESt16initializer_listIiERKS0_
0x10000468E	0x00000036	[  1] __ZN5boost16exception_detail12refcount_ptrINS0_20error_info_containerEE5adoptEPS2_
0x1000046C4	0x0000002C	[  1] __ZN5boost16exception_detail12refcount_ptrINS0_20error_info_containerEEC1ERKS3_
0x1000046F0	0x0000003C	[  1] __ZN5boost10shared_ptrIKNS_16exception_detail10clone_baseEEC1ERKS4_
0x10000472C	0x00000050	[  1] __ZN5boost16exception_detail10bad_alloc_C1Ev
0x10000477C	0x00000038	[  1] __ZNSt9bad_allocC2ERKS_
0x1000047B4	0x00000066	[  1] __ZN5boost16exception_detail10bad_alloc_C2ERKS1_
0x10000481A	0x000000B8	[  1] __ZN5boost16exception_detail10clone_implINS0_10bad_alloc_EEC1ERKS3_
0x1000048D2	0x0000020C	[  1] __ZN5boost16exception_detail27get_static_exception_objectINS0_10bad_alloc_EEENS_13exception_ptrEv
0x100004ADE	0x00000050	[  1] __ZN5boost16exception_detail14bad_exception_C1Ev
0x100004B2E	0x00000038	[  1] __ZNSt13bad_exceptionC2ERKS_
0x100004B66	0x00000066	[  1] __ZN5boost16exception_detail14bad_exception_C2ERKS1_
0x100004BCC	0x000000B8	[  1] __ZN5boost16exception_detail10clone_implINS0_14bad_exception_EEC1ERKS3_
0x100004C84	0x0000020C	[  1] __ZN5boost16exception_detail27get_static_exception_objectINS0_14bad_exception_EEENS_13exception_ptrEv
0x100004E90	0x0000006E	[  1] __ZN5boost10shared_ptrIN8socketio23socketio_client_handlerEEC1IS2_EEPT_
0x100004EFE	0x00000056	[  1] __ZN5boost16exception_detail12refcount_ptrINS0_20error_info_containerEE7releaseEv
0x100004F54	0x0000002A	[  1] __ZN5boost17enable_error_infoINS_6system12system_errorEEENS_16exception_detail29enable_error_info_return_typeIT_E4typeERKS5_
0x100004F7E	0x00000064	[  1] __ZN5boost16exception_detail19error_info_injectorINS_6system12system_errorEED2Ev
0x100004FE2	0x00000064	[  1] __ZN5boost16exception_detail19error_info_injectorINS_6system12system_errorEED1Ev
0x100005046	0x0000000A	[  1] __ZThn40_N5boost16exception_detail19error_info_injectorINS_6system12system_errorEED1Ev
0x100005050	0x00000026	[  1] __ZN5boost16exception_detail19error_info_injectorINS_6system12system_errorEED0Ev
0x100005076	0x0000000A	[  1] __ZThn40_N5boost16exception_detail19error_info_injectorINS_6system12system_errorEED0Ev
0x100005080	0x0000002A	[  1] __ZN5boost24enable_current_exceptionINS_16exception_detail19error_info_injectorINS_6system12system_errorEEEEENS1_10clone_implIT_EERKS7_
0x1000050AA	0x0000008A	[  1] __ZN5boost16exception_detail10clone_implINS0_19error_info_injectorINS_6system12system_errorEEEED1Ev
0x100005134	0x0000000D	[  1] __ZTv0_n40_N5boost16exception_detail10clone_implINS0_19error_info_injectorINS_6system12system_errorEEEED1Ev
0x100005141	0x0000000B	[  1] __ZThn40_N5boost16exception_detail10clone_implINS0_19error_info_injectorINS_6system12system_errorEEEED1Ev
0x10000514C	0x00000026	[  1] __ZN5boost16exception_detail10clone_implINS0_19error_info_injectorINS_6system12system_errorEEEED0Ev
0x100005172	0x0000000A	[  1] __ZThn40_N5boost16exception_detail10clone_implINS0_19error_info_injectorINS_6system12system_errorEEEED0Ev
0x10000517C	0x0000000E	[  1] __ZTv0_n40_N5boost16exception_detail10clone_implINS0_19error_info_injectorINS_6system12system_errorEEEED0Ev
0x10000518A	0x00000048	[  1] __ZN5boost4asio6detail13posix_tss_ptrINS1_10call_stackINS1_15task_io_serviceENS1_27task_io_service_thread_infoEE7contextEEC2Ev
0x1000051D2	0x0000002A	[  1] __ZN5boost4asio6detail13posix_tss_ptrINS1_10call_stackINS1_15task_io_serviceENS1_27task_io_service_thread_infoEE7contextEED2Ev
0x1000051FC	0x00000048	[  1] __ZN5boost4asio6detail13posix_tss_ptrINS1_10call_stackINS1_14strand_service11strand_implEhE7contextEEC2Ev
0x100005244	0x0000002A	[  1] __ZN5boost4asio6detail13posix_tss_ptrINS1_10call_stackINS1_14strand_service11strand_implEhE7contextEED2Ev
0x10000526E	0x0000000A	[  1] __ZN9__gnu_cxx13new_allocatorIiEC2Ev
0x100005278	0x0000000A	[  1] __ZN9__gnu_cxx13new_allocatorIiED2Ev
0x100005282	0x0000001A	[  1] __ZNSt12_Vector_baseIiSaIiEE12_Vector_implD1Ev
0x10000529C	0x00000050	[  1] __ZNSt12_Vector_baseIiSaIiEED2Ev
0x1000052EC	0x0000000E	[  1] __ZNSt12_Vector_baseIiSaIiEE19_M_get_Tp_allocatorEv
0x1000052FA	0x0000002A	[  1] __ZSt8_DestroyIPiiEvT_S1_RSaIT0_E
0x100005324	0x00000026	[  1] __ZNSt12_Vector_baseIiSaIiEEC2ERKS0_
0x10000534A	0x00000096	[  1] __ZNSt6vectorIiSaIiEE19_M_range_initializeIPKiEEvT_S5_St20forward_iterator_tag
0x1000053E0	0x00000038	[  1] __ZN5boost16exception_detail12refcount_ptrINS0_20error_info_containerEE7add_refEv
0x100005418	0x0000001C	[  1] __ZN5boost16exception_detail10clone_baseC2Ev
0x100005434	0x000000C2	[  1] __ZN5boost16exception_detail10clone_implINS0_10bad_alloc_EEC1ERKS2_
0x1000054F6	0x0000008A	[  1] __ZN5boost16exception_detail10clone_implINS0_10bad_alloc_EED1Ev
0x100005580	0x0000000A	[  1] __ZThn40_N5boost16exception_detail10clone_implINS0_10bad_alloc_EED1Ev
0x10000558A	0x0000000E	[  1] __ZTv0_n40_N5boost16exception_detail10clone_implINS0_10bad_alloc_EED1Ev
0x100005598	0x00000026	[  1] __ZN5boost16exception_detail10clone_implINS0_10bad_alloc_EED0Ev
0x1000055BE	0x0000000A	[  1] __ZThn40_N5boost16exception_detail10clone_implINS0_10bad_alloc_EED0Ev
0x1000055C8	0x0000000D	[  1] __ZTv0_n40_N5boost16exception_detail10clone_implINS0_10bad_alloc_EED0Ev
0x1000055D5	0x00000025	[  1] __ZN5boostlsINS_16exception_detail10clone_implINS1_10bad_alloc_EEENS_15throw_function_EPKcEENS_9enable_ifINS1_23derives_boost_exceptionIT_EERKSA_E4typeESD_RKNS_10error_infoIT0_T1_EE
0x1000055FA	0x00000025	[  1] __ZN5boostlsINS_16exception_detail10clone_implINS1_10bad_alloc_EEENS_11throw_file_EPKcEENS_9enable_ifINS1_23derives_boost_exceptionIT_EERKSA_E4typeESD_RKNS_10error_infoIT0_T1_EE
0x10000561F	0x00000025	[  1] __ZN5boostlsINS_16exception_detail10clone_implINS1_10bad_alloc_EEENS_11throw_line_EiEENS_9enable_ifINS1_23derives_boost_exceptionIT_EERKS8_E4typeESB_RKNS_10error_infoIT0_T1_EE
0x100005644	0x00000090	[  1] __ZN5boost10shared_ptrIKNS_16exception_detail10clone_baseEEC1INS1_10clone_implINS1_10bad_alloc_EEEEEPT_
0x1000056D4	0x000000C2	[  1] __ZN5boost16exception_detail10clone_implINS0_14bad_exception_EEC1ERKS2_
0x100005796	0x0000008A	[  1] __ZN5boost16exception_detail10clone_implINS0_14bad_exception_EED1Ev
0x100005820	0x0000000A	[  1] __ZThn40_N5boost16exception_detail10clone_implINS0_14bad_exception_EED1Ev
0x10000582A	0x0000000E	[  1] __ZTv0_n40_N5boost16exception_detail10clone_implINS0_14bad_exception_EED1Ev
0x100005838	0x00000026	[  1] __ZN5boost16exception_detail10clone_implINS0_14bad_exception_EED0Ev
0x10000585E	0x0000000A	[  1] __ZThn40_N5boost16exception_detail10clone_implINS0_14bad_exception_EED0Ev
0x100005868	0x0000000D	[  1] __ZTv0_n40_N5boost16exception_detail10clone_implINS0_14bad_exception_EED0Ev
0x100005875	0x00000025	[  1] __ZN5boostlsINS_16exception_detail10clone_implINS1_14bad_exception_EEENS_15throw_function_EPKcEENS_9enable_ifINS1_23derives_boost_exceptionIT_EERKSA_E4typeESD_RKNS_10error_infoIT0_T1_EE
0x10000589A	0x00000025	[  1] __ZN5boostlsINS_16exception_detail10clone_implINS1_14bad_exception_EEENS_11throw_file_EPKcEENS_9enable_ifINS1_23derives_boost_exceptionIT_EERKSA_E4typeESD_RKNS_10error_infoIT0_T1_EE
0x1000058BF	0x00000025	[  1] __ZN5boostlsINS_16exception_detail10clone_implINS1_14bad_exception_EEENS_11throw_line_EiEENS_9enable_ifINS1_23derives_boost_exceptionIT_EERKS8_E4typeESB_RKNS_10error_infoIT0_T1_EE
0x1000058E4	0x00000090	[  1] __ZN5boost10shared_ptrIKNS_16exception_detail10clone_baseEEC1INS1_10clone_implINS1_14bad_exception_EEEEEPT_
0x100005974	0x00000064	[  1] __ZN5boost6detail20sp_pointer_constructIN8socketio23socketio_client_handlerES3_EEvPNS_10shared_ptrIT_EEPT0_RNS0_12shared_countE
0x1000059D8	0x0000005A	[  1] __ZN5boost16exception_detail19error_info_injectorINS_6system12system_errorEEC1ERKS3_
0x100005A32	0x000000CA	[  1] __ZN5boost16exception_detail10clone_implINS0_19error_info_injectorINS_6system12system_errorEEEEC1ERKS5_
0x100005AFC	0x00000048	[  1] __ZNSt12_Vector_baseIiSaIiEE12_Vector_implC1ERKS0_
0x100005B44	0x00000034	[  1] __ZNSt12_Vector_baseIiSaIiEE13_M_deallocateEPim
0x100005B78	0x00000025	[  1] __ZSt8_DestroyIPiEvT_S1_
0x100005B9D	0x0000003F	[  1] __ZSt8distanceIPKiENSt15iterator_traitsIT_E15difference_typeES3_S3_
0x100005BDC	0x00000033	[  1] __ZNSt12_Vector_baseIiSaIiEE11_M_allocateEm
0x100005C0F	0x00000031	[  1] __ZSt22__uninitialized_copy_aIPKiPiiET0_T_S4_S3_RSaIT1_E
0x100005C40	0x00000021	[  1] __ZN5boost16exception_detail8set_infoINS0_10clone_implINS0_10bad_alloc_EEEEERKT_S7_RKNS_10error_infoINS_15throw_function_EPKcEE
0x100005C61	0x00000021	[  1] __ZN5boost16exception_detail8set_infoINS0_10clone_implINS0_10bad_alloc_EEEEERKT_S7_RKNS_10error_infoINS_11throw_file_EPKcEE
0x100005C82	0x0000001F	[  1] __ZN5boost16exception_detail8set_infoINS0_10clone_implINS0_10bad_alloc_EEEEERKT_S7_RKNS_10error_infoINS_11throw_line_EiEE
0x100005CA1	0x00000064	[  1] __ZN5boost6detail20sp_pointer_constructIKNS_16exception_detail10clone_baseENS2_10clone_implINS2_10bad_alloc_EEEEEvPNS_10shared_ptrIT_EEPT0_RNS0_12shared_countE
0x100005D05	0x00000021	[  1] __ZN5boost16exception_detail8set_infoINS0_10clone_implINS0_14bad_exception_EEEEERKT_S7_RKNS_10error_infoINS_15throw_function_EPKcEE
0x100005D26	0x00000021	[  1] __ZN5boost16exception_detail8set_infoINS0_10clone_implINS0_14bad_exception_EEEEERKT_S7_RKNS_10error_infoINS_11throw_file_EPKcEE
0x100005D47	0x0000001F	[  1] __ZN5boost16exception_detail8set_infoINS0_10clone_implINS0_14bad_exception_EEEEERKT_S7_RKNS_10error_infoINS_11throw_line_EiEE
0x100005D66	0x00000064	[  1] __ZN5boost6detail20sp_pointer_constructIKNS_16exception_detail10clone_baseENS2_10clone_implINS2_14bad_exception_EEEEEvPNS_10shared_ptrIT_EEPT0_RNS0_12shared_countE
0x100005DCA	0x00000074	[  1] __ZN5boost6detail12shared_countC1IN8socketio23socketio_client_handlerEEEPT_
0x100005E3E	0x00000025	[  1] __ZNSaIiEC2ERKS_
0x100005E63	0x0000002D	[  1] __ZNSt16allocator_traitsISaIiEE10deallocateERS0_Pim
0x100005E90	0x0000000E	[  1] __ZNSt12_Destroy_auxILb1EE9__destroyIPiEEvT_S3_
0x100005E9E	0x0000000A	[  1] __ZSt19__iterator_categoryIPKiENSt15iterator_traitsIT_E17iterator_categoryERKS3_
0x100005EA8	0x00000020	[  1] __ZSt10__distanceIPKiENSt15iterator_traitsIT_E15difference_typeES3_S3_St26random_access_iterator_tag
0x100005EC8	0x0000002A	[  1] __ZNSt16allocator_traitsISaIiEE8allocateERS0_m
0x100005EF2	0x00000032	[  1] __ZSt18uninitialized_copyIPKiPiET0_T_S4_S3_
0x100005F24	0x00000074	[  1] __ZN5boost6detail12shared_countC1INS_16exception_detail10clone_implINS3_10bad_alloc_EEEEEPT_
0x100005F98	0x00000074	[  1] __ZN5boost6detail12shared_countC1INS_16exception_detail10clone_implINS3_14bad_exception_EEEEEPT_
0x10000600C	0x0000003C	[  1] __ZN5boost6detail17sp_counted_impl_pIN8socketio23socketio_client_handlerEEC1EPS3_
0x100006048	0x0000002E	[  1] __ZN5boost14checked_deleteIN8socketio23socketio_client_handlerEEEvPT_
0x100006076	0x0000000E	[  1] __ZN9__gnu_cxx13new_allocatorIiEC2ERKS1_
0x100006084	0x00000022	[  1] __ZN9__gnu_cxx13new_allocatorIiE10deallocateEPim
0x1000060A6	0x00000042	[  1] __ZN9__gnu_cxx13new_allocatorIiE8allocateEmPKv
0x1000060E8	0x00000056	[  1] __ZNSt20__uninitialized_copyILb0EE13__uninit_copyIPKiPiEET0_T_S6_S5_
0x10000613E	0x0000003C	[  1] __ZN5boost6detail17sp_counted_impl_pINS_16exception_detail10clone_implINS2_10bad_alloc_EEEEC1EPS5_
0x10000617A	0x0000002C	[  1] __ZN5boost14checked_deleteINS_16exception_detail10clone_implINS1_10bad_alloc_EEEEEvPT_
0x1000061A6	0x0000003C	[  1] __ZN5boost6detail17sp_counted_impl_pINS_16exception_detail10clone_implINS2_14bad_exception_EEEEC1EPS5_
0x1000061E2	0x0000002C	[  1] __ZN5boost14checked_deleteINS_16exception_detail10clone_implINS1_14bad_exception_EEEEEvPT_
0x10000620E	0x0000001A	[  1] __ZN5boost4asio6detail10service_idINS0_21stream_socket_serviceINS0_2ip3tcpEEEEC1Ev
0x100006228	0x00000014	[  1] __ZNK9__gnu_cxx13new_allocatorIiE8max_sizeEv
0x10000623C	0x0000000E	[  1] __ZSt11__addressofIiEPT_RS0_
0x10000624A	0x0000000E	[  1] __ZSt7forwardIRKiEOT_RNSt16remove_referenceIS2_E4typeE
0x100006258	0x0000003E	[  1] __ZSt10_ConstructIiIRKiEEvPT_DpOT0_
0x100006296	0x00000042	[  1] __ZN5boost6detail17sp_counted_impl_pINS_16exception_detail10clone_implINS2_14bad_exception_EEEED1Ev
0x1000062D8	0x00000026	[  1] __ZN5boost6detail17sp_counted_impl_pINS_16exception_detail10clone_implINS2_14bad_exception_EEEED0Ev
0x1000062FE	0x00000042	[  1] __ZN5boost6detail17sp_counted_impl_pINS_16exception_detail10clone_implINS2_10bad_alloc_EEEED1Ev
0x100006340	0x00000026	[  1] __ZN5boost6detail17sp_counted_impl_pINS_16exception_detail10clone_implINS2_10bad_alloc_EEEED0Ev
0x100006366	0x00000042	[  1] __ZN5boost6detail17sp_counted_impl_pIN8socketio23socketio_client_handlerEED1Ev
0x1000063A8	0x00000026	[  1] __ZN5boost6detail17sp_counted_impl_pIN8socketio23socketio_client_handlerEED0Ev
0x1000063CE	0x00000042	[  1] __ZN5boost4asio5error6detail13misc_categoryD1Ev
0x100006410	0x00000026	[  1] __ZN5boost4asio5error6detail13misc_categoryD0Ev
0x100006436	0x00000042	[  1] __ZN5boost4asio5error6detail17addrinfo_categoryD1Ev
0x100006478	0x00000026	[  1] __ZN5boost4asio5error6detail17addrinfo_categoryD0Ev
0x10000649E	0x00000042	[  1] __ZN5boost4asio5error6detail14netdb_categoryD1Ev
0x1000064E0	0x00000026	[  1] __ZN5boost4asio5error6detail14netdb_categoryD0Ev
0x100006506	0x0000001A	[  1] __ZN5boost4asio6detail7tss_ptrINS1_10call_stackINS1_15task_io_serviceENS1_27task_io_service_thread_infoEE7contextEED1Ev
0x100006520	0x0000001A	[  1] __ZN5boost4asio6detail10service_idINS1_14kqueue_reactorEED1Ev
0x10000653A	0x0000001A	[  1] __ZN5boost4asio6detail10service_idINS1_15task_io_serviceEED1Ev
0x100006554	0x0000001A	[  1] __ZN5boost4asio6detail7tss_ptrINS1_10call_stackINS1_14strand_service11strand_implEhE7contextEED1Ev
0x10000656E	0x0000001A	[  1] __ZN5boost4asio6detail10service_idINS1_14strand_serviceEED1Ev
0x100006588	0x0000001A	[  1] __ZN5boost4asio6detail10service_idINS0_21stream_socket_serviceINS0_2ip3tcpEEEED1Ev
0x1000065A2	0x0000001E	[  1] __ZN5boost6detail17sp_counted_impl_pINS_16exception_detail10clone_implINS2_14bad_exception_EEEE7disposeEv
0x1000065C0	0x00000014	[  1] __ZN5boost6detail17sp_counted_impl_pINS_16exception_detail10clone_implINS2_14bad_exception_EEEE11get_deleterERKSt9type_info
0x1000065D4	0x00000010	[  1] __ZN5boost6detail17sp_counted_impl_pINS_16exception_detail10clone_implINS2_14bad_exception_EEEE19get_untyped_deleterEv
0x1000065E4	0x0000001E	[  1] __ZN5boost6detail17sp_counted_impl_pINS_16exception_detail10clone_implINS2_10bad_alloc_EEEE7disposeEv
0x100006602	0x00000014	[  1] __ZN5boost6detail17sp_counted_impl_pINS_16exception_detail10clone_implINS2_10bad_alloc_EEEE11get_deleterERKSt9type_info
0x100006616	0x00000010	[  1] __ZN5boost6detail17sp_counted_impl_pINS_16exception_detail10clone_implINS2_10bad_alloc_EEEE19get_untyped_deleterEv
0x100006626	0x0000001E	[  1] __ZN5boost6detail17sp_counted_impl_pIN8socketio23socketio_client_handlerEE7disposeEv
0x100006644	0x00000014	[  1] __ZN5boost6detail17sp_counted_impl_pIN8socketio23socketio_client_handlerEE11get_deleterERKSt9type_info
0x100006658	0x00000010	[  1] __ZN5boost6detail17sp_counted_impl_pIN8socketio23socketio_client_handlerEE19get_untyped_deleterEv
0x100006668	0x00000075	[  1] __ZNK5boost16exception_detail10clone_implINS0_14bad_exception_EE5cloneEv
0x1000066DD	0x0000000D	[  1] __ZTv0_n24_NK5boost16exception_detail10clone_implINS0_14bad_exception_EE5cloneEv
0x1000066EA	0x0000005D	[  1] __ZNK5boost16exception_detail10clone_implINS0_14bad_exception_EE7rethrowEv
0x100006747	0x0000000D	[  1] __ZTv0_n32_NK5boost16exception_detail10clone_implINS0_14bad_exception_EE7rethrowEv
0x100006754	0x00000075	[  1] __ZNK5boost16exception_detail10clone_implINS0_10bad_alloc_EE5cloneEv
0x1000067C9	0x0000000D	[  1] __ZTv0_n24_NK5boost16exception_detail10clone_implINS0_10bad_alloc_EE5cloneEv
0x1000067D6	0x0000005D	[  1] __ZNK5boost16exception_detail10clone_implINS0_10bad_alloc_EE7rethrowEv
0x100006833	0x0000000D	[  1] __ZTv0_n32_NK5boost16exception_detail10clone_implINS0_10bad_alloc_EE7rethrowEv
0x100006840	0x00000075	[  1] __ZNK5boost16exception_detail10clone_implINS0_19error_info_injectorINS_6system12system_errorEEEE5cloneEv
0x1000068B5	0x0000000D	[  1] __ZTv0_n24_NK5boost16exception_detail10clone_implINS0_19error_info_injectorINS_6system12system_errorEEEE5cloneEv
0x1000068C2	0x0000005D	[  1] __ZNK5boost16exception_detail10clone_implINS0_19error_info_injectorINS_6system12system_errorEEEE7rethrowEv
0x10000691F	0x0000000D	[  1] __ZTv0_n32_NK5boost16exception_detail10clone_implINS0_19error_info_injectorINS_6system12system_errorEEEE7rethrowEv
0x10000692C	0x000000C2	[  1] __ZN5boost16exception_detail10clone_implINS0_14bad_exception_EEC1ERKS3_NS3_9clone_tagE
0x1000069EE	0x000000C2	[  1] __ZN5boost16exception_detail10clone_implINS0_10bad_alloc_EEC1ERKS3_NS3_9clone_tagE
0x100006AB0	0x000000C9	[  1] __ZN5boost16exception_detail10clone_implINS0_19error_info_injectorINS_6system12system_errorEEEEC1ERKS6_NS6_9clone_tagE
0x100006B7A	0x00000006	[  0] __ZN8socketio23socketio_client_handlerC1Ev
0x100006B80	0x00000006	[  0] __ZN8socketio23socketio_client_handlerD1Ev
0x100006B86	0x00000006	[  1] __ZN5boost10error_infoINS_11throw_file_EPKcEC1ES3_
0x100006B8C	0x00000006	[  1] __ZN5boost10error_infoINS_11throw_line_EiEC1Ei
0x100006B92	0x00000006	[  1] __ZN5boost10error_infoINS_15throw_function_EPKcEC1ES3_
0x100006B98	0x00000006	[  1] __ZN5boost10shared_ptrIKNS_16exception_detail10clone_baseEEC1ERKS4_
0x100006B9E	0x00000006	[  1] __ZN5boost10shared_ptrIKNS_16exception_detail10clone_baseEEC1INS1_10clone_implINS1_10bad_alloc_EEEEEPT_
0x100006BA4	0x00000006	[  1] __ZN5boost10shared_ptrIKNS_16exception_detail10clone_baseEEC1INS1_10clone_implINS1_14bad_exception_EEEEEPT_
0x100006BAA	0x00000006	[  1] __ZN5boost10shared_ptrIKNS_16exception_detail10clone_baseEED1Ev
0x100006BB0	0x00000006	[  1] __ZN5boost10shared_ptrIN8socketio23socketio_client_handlerEEC1IS2_EEPT_
0x100006BB6	0x00000006	[  1] __ZN5boost10shared_ptrIN8socketio23socketio_client_handlerEED1Ev
0x100006BBC	0x00000006	[  1] __ZN5boost13exception_ptrC1ERKNS_10shared_ptrIKNS_16exception_detail10clone_baseEEE
0x100006BC2	0x00000006	[  1] __ZN5boost13exception_ptrC1ERKS0_
0x100006BC8	0x00000006	[  1] __ZN5boost14checked_deleteIN8socketio23socketio_client_handlerEEEvPT_
0x100006BCE	0x00000006	[  1] __ZN5boost14checked_deleteINS_16exception_detail10clone_implINS1_10bad_alloc_EEEEEvPT_
0x100006BD4	0x00000006	[  1] __ZN5boost14checked_deleteINS_16exception_detail10clone_implINS1_14bad_exception_EEEEEvPT_
0x100006BDA	0x00000006	[  1] __ZN5boost15throw_exceptionINS_6system12system_errorEEEvRKT_
0x100006BE0	0x00000006	[  1] __ZN5boost16exception_detail10bad_alloc_C1Ev
0x100006BE6	0x00000006	[  1] __ZN5boost16exception_detail10bad_alloc_C2ERKS1_
0x100006BEC	0x00000006	[  1] __ZN5boost16exception_detail10bad_alloc_D1Ev
0x100006BF2	0x00000006	[  1] __ZN5boost16exception_detail10bad_alloc_D2Ev
0x100006BF8	0x00000006	[  1] __ZN5boost16exception_detail10clone_baseC2ERKS1_
0x100006BFE	0x00000006	[  1] __ZN5boost16exception_detail10clone_baseC2Ev
0x100006C04	0x00000006	[  1] __ZN5boost16exception_detail10clone_baseD2Ev
0x100006C0A	0x00000006	[  1] __ZN5boost16exception_detail10clone_implINS0_10bad_alloc_EEC1ERKS2_
0x100006C10	0x00000006	[  1] __ZN5boost16exception_detail10clone_implINS0_10bad_alloc_EEC1ERKS3_
0x100006C16	0x00000006	[  1] __ZN5boost16exception_detail10clone_implINS0_10bad_alloc_EEC1ERKS3_NS3_9clone_tagE
0x100006C1C	0x00000006	[  1] __ZN5boost16exception_detail10clone_implINS0_10bad_alloc_EED1Ev
0x100006C22	0x00000006	[  1] __ZN5boost16exception_detail10clone_implINS0_14bad_exception_EEC1ERKS2_
0x100006C28	0x00000006	[  1] __ZN5boost16exception_detail10clone_implINS0_14bad_exception_EEC1ERKS3_
0x100006C2E	0x00000006	[  1] __ZN5boost16exception_detail10clone_implINS0_14bad_exception_EEC1ERKS3_NS3_9clone_tagE
0x100006C34	0x00000006	[  1] __ZN5boost16exception_detail10clone_implINS0_14bad_exception_EED1Ev
0x100006C3A	0x00000006	[  1] __ZN5boost16exception_detail10clone_implINS0_19error_info_injectorINS_6system12system_errorEEEEC1ERKS5_
0x100006C40	0x00000006	[  1] __ZN5boost16exception_detail10clone_implINS0_19error_info_injectorINS_6system12system_errorEEEEC1ERKS6_
0x100006C46	0x00000006	[  1] __ZN5boost16exception_detail10clone_implINS0_19error_info_injectorINS_6system12system_errorEEEEC1ERKS6_NS6_9clone_tagE
0x100006C4C	0x00000006	[  1] __ZN5boost16exception_detail10clone_implINS0_19error_info_injectorINS_6system12system_errorEEEED1Ev
0x100006C52	0x00000006	[  1] __ZN5boost16exception_detail12refcount_ptrINS0_20error_info_containerEE5adoptEPS2_
0x100006C58	0x00000006	[  1] __ZN5boost16exception_detail12refcount_ptrINS0_20error_info_containerEE7add_refEv
0x100006C5E	0x00000006	[  1] __ZN5boost16exception_detail12refcount_ptrINS0_20error_info_containerEE7releaseEv
0x100006C64	0x00000006	[  1] __ZN5boost16exception_detail12refcount_ptrINS0_20error_info_containerEEC1ERKS3_
0x100006C6A	0x00000006	[  1] __ZN5boost16exception_detail12refcount_ptrINS0_20error_info_containerEEC1Ev
0x100006C70	0x00000006	[  1] __ZN5boost16exception_detail12refcount_ptrINS0_20error_info_containerEED1Ev
0x100006C76	0x00000006	[  1] __ZN5boost16exception_detail12refcount_ptrINS0_20error_info_containerEEaSERKS3_
0x100006C7C	0x00000006	[  1] __ZN5boost16exception_detail14bad_exception_C1Ev
0x100006C82	0x00000006	[  1] __ZN5boost16exception_detail14bad_exception_C2ERKS1_
0x100006C88	0x00000006	[  1] __ZN5boost16exception_detail14bad_exception_D1Ev
0x100006C8E	0x00000006	[  1] __ZN5boost16exception_detail14bad_exception_D2Ev
0x100006C94	0x00000006	[  1] __ZN5boost16exception_detail19error_info_injectorINS_6system12system_errorEEC1ERKS3_
0x100006C9A	0x00000006	[  1] __ZN5boost16exception_detail19error_info_injectorINS_6system12system_errorEEC2ERKS4_
0x100006CA0	0x00000006	[  1] __ZN5boost16exception_detail19error_info_injectorINS_6system12system_errorEED1Ev
0x100006CA6	0x00000006	[  1] __ZN5boost16exception_detail19error_info_injectorINS_6system12system_errorEED2Ev
0x100006CAC	0x00000006	[  1] __ZN5boost16exception_detail20copy_boost_exceptionEPNS_9exceptionEPKS1_
0x100006CB2	0x00000006	[  1] __ZN5boost16exception_detail27get_static_exception_objectINS0_10bad_alloc_EEENS_13exception_ptrEv
0x100006CB8	0x00000006	[  1] __ZN5boost16exception_detail27get_static_exception_objectINS0_14bad_exception_EEENS_13exception_ptrEv
0x100006CBE	0x00000006	[  1] __ZN5boost16exception_detail8set_infoINS0_10clone_implINS0_10bad_alloc_EEEEERKT_S7_RKNS_10error_infoINS_11throw_file_EPKcEE
0x100006CC4	0x00000006	[  1] __ZN5boost16exception_detail8set_infoINS0_10clone_implINS0_10bad_alloc_EEEEERKT_S7_RKNS_10error_infoINS_11throw_line_EiEE
0x100006CCA	0x00000006	[  1] __ZN5boost16exception_detail8set_infoINS0_10clone_implINS0_10bad_alloc_EEEEERKT_S7_RKNS_10error_infoINS_15throw_function_EPKcEE
0x100006CD0	0x00000006	[  1] __ZN5boost16exception_detail8set_infoINS0_10clone_implINS0_14bad_exception_EEEEERKT_S7_RKNS_10error_infoINS_11throw_file_EPKcEE
0x100006CD6	0x00000006	[  1] __ZN5boost16exception_detail8set_infoINS0_10clone_implINS0_14bad_exception_EEEEERKT_S7_RKNS_10error_infoINS_11throw_line_EiEE
0x100006CDC	0x00000006	[  1] __ZN5boost16exception_detail8set_infoINS0_10clone_implINS0_14bad_exception_EEEEERKT_S7_RKNS_10error_infoINS_15throw_function_EPKcEE
0x100006CE2	0x00000006	[  1] __ZN5boost17enable_error_infoINS_6system12system_errorEEENS_16exception_detail29enable_error_info_return_typeIT_E4typeERKS5_
0x100006CE8	0x00000006	[  1] __ZN5boost24enable_current_exceptionINS_16exception_detail19error_info_injectorINS_6system12system_errorEEEEENS1_10clone_implIT_EERKS7_
0x100006CEE	0x00000006	[  1] __ZN5boost36throw_exception_assert_compatibilityERKSt9exception
0x100006CF4	0x00000006	[  1] __ZN5boost3argILi1EEC1Ev
0x100006CFA	0x00000006	[  1] __ZN5boost3argILi2EEC1Ev
0x100006D00	0x00000006	[  1] __ZN5boost3argILi3EEC1Ev
0x100006D06	0x00000006	[  1] __ZN5boost3argILi4EEC1Ev
0x100006D0C	0x00000006	[  1] __ZN5boost3argILi5EEC1Ev
0x100006D12	0x00000006	[  1] __ZN5boost3argILi6EEC1Ev
0x100006D18	0x00000006	[  1] __ZN5boost3argILi7EEC1Ev
0x100006D1E	0x00000006	[  1] __ZN5boost3argILi8EEC1Ev
0x100006D24	0x00000006	[  1] __ZN5boost3argILi9EEC1Ev
0x100006D2A	0x00000006	[  1] __ZN5boost4asio10io_service2idC2Ev
0x100006D30	0x00000006	[  1] __ZN5boost4asio10io_service2idD2Ev
0x100006D36	0x00000006	[  1] __ZN5boost4asio5error17get_misc_categoryEv
0x100006D3C	0x00000006	[  1] __ZN5boost4asio5error18get_netdb_categoryEv
0x100006D42	0x00000006	[  1] __ZN5boost4asio5error19get_system_categoryEv
0x100006D48	0x00000006	[  1] __ZN5boost4asio5error21get_addrinfo_categoryEv
0x100006D4E	0x00000006	[  1] __ZN5boost4asio5error6detail13misc_categoryD1Ev
0x100006D54	0x00000006	[  1] __ZN5boost4asio5error6detail14netdb_categoryD1Ev
0x100006D5A	0x00000006	[  1] __ZN5boost4asio5error6detail17addrinfo_categoryD1Ev
0x100006D60	0x00000006	[  1] __ZN5boost4asio6detail10service_idINS0_21stream_socket_serviceINS0_2ip3tcpEEEEC1Ev
0x100006D66	0x00000006	[  1] __ZN5boost4asio6detail10service_idINS1_14kqueue_reactorEEC1Ev
0x100006D6C	0x00000006	[  1] __ZN5boost4asio6detail10service_idINS1_14strand_serviceEEC1Ev
0x100006D72	0x00000006	[  1] __ZN5boost4asio6detail10service_idINS1_15task_io_serviceEEC1Ev
0x100006D78	0x00000006	[  1] __ZN5boost4asio6detail11noncopyableC2Ev
0x100006D7E	0x00000006	[  1] __ZN5boost4asio6detail11noncopyableD2Ev
0x100006D84	0x00000006	[  1] __ZN5boost4asio6detail11throw_errorERKNS_6system10error_codeEPKc
0x100006D8A	0x00000006	[  1] __ZN5boost4asio6detail13posix_tss_ptrINS1_10call_stackINS1_14strand_service11strand_implEhE7contextEEC2Ev
0x100006D90	0x00000006	[  1] __ZN5boost4asio6detail13posix_tss_ptrINS1_10call_stackINS1_14strand_service11strand_implEhE7contextEED2Ev
0x100006D96	0x00000006	[  1] __ZN5boost4asio6detail13posix_tss_ptrINS1_10call_stackINS1_15task_io_serviceENS1_27task_io_service_thread_infoEE7contextEEC2Ev
0x100006D9C	0x00000006	[  1] __ZN5boost4asio6detail13posix_tss_ptrINS1_10call_stackINS1_15task_io_serviceENS1_27task_io_service_thread_infoEE7contextEED2Ev
0x100006DA2	0x00000006	[  1] __ZN5boost4asio6detail14do_throw_errorERKNS_6system10error_codeEPKc
0x100006DA8	0x00000006	[  1] __ZN5boost4asio6detail20posix_tss_ptr_createERm
0x100006DAE	0x00000006	[  1] __ZN5boost4asio6detail7tss_ptrINS1_10call_stackINS1_14strand_service11strand_implEhE7contextEEC1Ev
0x100006DB4	0x00000006	[  1] __ZN5boost4asio6detail7tss_ptrINS1_10call_stackINS1_15task_io_serviceENS1_27task_io_service_thread_infoEE7contextEEC1Ev
0x100006DBA	0x00000006	[  1] __ZN5boost6detail12shared_count4swapERS1_
0x100006DC0	0x00000006	[  1] __ZN5boost6detail12shared_countC1ERKS1_
0x100006DC6	0x00000006	[  1] __ZN5boost6detail12shared_countC1Ev
0x100006DCC	0x00000006	[  1] __ZN5boost6detail12shared_countC1IN8socketio23socketio_client_handlerEEEPT_
0x100006DD2	0x00000006	[  1] __ZN5boost6detail12shared_countC1INS_16exception_detail10clone_implINS3_10bad_alloc_EEEEEPT_
0x100006DD8	0x00000006	[  1] __ZN5boost6detail12shared_countC1INS_16exception_detail10clone_implINS3_14bad_exception_EEEEEPT_
0x100006DDE	0x00000006	[  1] __ZN5boost6detail12shared_countD1Ev
0x100006DE4	0x00000006	[  1] __ZN5boost6detail15sp_counted_base12add_ref_copyEv
0x100006DEA	0x00000006	[  1] __ZN5boost6detail15sp_counted_base12weak_releaseEv
0x100006DF0	0x00000006	[  1] __ZN5boost6detail15sp_counted_base7releaseEv
0x100006DF6	0x00000006	[  1] __ZN5boost6detail15sp_counted_baseC2Ev
0x100006DFC	0x00000006	[  1] __ZN5boost6detail15sp_counted_baseD2Ev
0x100006E02	0x00000006	[  1] __ZN5boost6detail16atomic_incrementEPi
0x100006E08	0x00000006	[  1] __ZN5boost6detail17sp_counted_impl_pIN8socketio23socketio_client_handlerEEC1EPS3_
0x100006E0E	0x00000006	[  1] __ZN5boost6detail17sp_counted_impl_pIN8socketio23socketio_client_handlerEED1Ev
0x100006E14	0x00000006	[  1] __ZN5boost6detail17sp_counted_impl_pINS_16exception_detail10clone_implINS2_10bad_alloc_EEEEC1EPS5_
0x100006E1A	0x00000006	[  1] __ZN5boost6detail17sp_counted_impl_pINS_16exception_detail10clone_implINS2_10bad_alloc_EEEED1Ev
0x100006E20	0x00000006	[  1] __ZN5boost6detail17sp_counted_impl_pINS_16exception_detail10clone_implINS2_14bad_exception_EEEEC1EPS5_
0x100006E26	0x00000006	[  1] __ZN5boost6detail17sp_counted_impl_pINS_16exception_detail10clone_implINS2_14bad_exception_EEEED1Ev
0x100006E2C	0x00000006	[  1] __ZN5boost6detail20sp_pointer_constructIKNS_16exception_detail10clone_baseENS2_10clone_implINS2_10bad_alloc_EEEEEvPNS_10shared_ptrIT_EEPT0_RNS0_12shared_countE
0x100006E32	0x00000006	[  1] __ZN5boost6detail20sp_pointer_constructIKNS_16exception_detail10clone_baseENS2_10clone_implINS2_14bad_exception_EEEEEvPNS_10shared_ptrIT_EEPT0_RNS0_12shared_countE
0x100006E38	0x00000006	[  1] __ZN5boost6detail20sp_pointer_constructIN8socketio23socketio_client_handlerES3_EEvPNS_10shared_ptrIT_EEPT0_RNS0_12shared_countE
0x100006E3E	0x00000006	[  1] __ZN5boost6detail23atomic_exchange_and_addEPii
0x100006E44	0x00000006	[  1] __ZN5boost6detail26sp_enable_shared_from_thisEz
0x100006E4A	0x00000006	[  1] __ZN5boost6system10error_codeC1EiRKNS0_14error_categoryE
0x100006E50	0x00000006	[  1] __ZN5boost6system12system_errorC1ENS0_10error_codeEPKc
0x100006E56	0x00000006	[  1] __ZN5boost6system12system_errorC2ERKS1_
0x100006E5C	0x00000006	[  1] __ZN5boost6system12system_errorD1Ev
0x100006E62	0x00000006	[  1] __ZN5boost6system12system_errorD2Ev
0x100006E68	0x00000006	[  1] __ZN5boost6system14error_categoryD2Ev
0x100006E6E	0x00000006	[  1] __ZN5boost6system15error_conditionC1EiRKNS0_14error_categoryE
0x100006E74	0x00000006	[  1] __ZN5boost6systemeqERKNS0_15error_conditionES3_
0x100006E7A	0x00000006	[  1] __ZN5boost9exceptionC2ERKS0_
0x100006E80	0x00000006	[  1] __ZN5boost9exceptionC2Ev
0x100006E86	0x00000006	[  1] __ZN5boost9exceptionD2Ev
0x100006E8C	0x00000006	[  1] __ZN5boostlsINS_16exception_detail10clone_implINS1_10bad_alloc_EEENS_11throw_file_EPKcEENS_9enable_ifINS1_23derives_boost_exceptionIT_EERKSA_E4typeESD_RKNS_10error_infoIT0_T1_EE
0x100006E92	0x00000006	[  1] __ZN5boostlsINS_16exception_detail10clone_implINS1_10bad_alloc_EEENS_11throw_line_EiEENS_9enable_ifINS1_23derives_boost_exceptionIT_EERKS8_E4typeESB_RKNS_10error_infoIT0_T1_EE
0x100006E98	0x00000006	[  1] __ZN5boostlsINS_16exception_detail10clone_implINS1_10bad_alloc_EEENS_15throw_function_EPKcEENS_9enable_ifINS1_23derives_boost_exceptionIT_EERKSA_E4typeESD_RKNS_10error_infoIT0_T1_EE
0x100006E9E	0x00000006	[  1] __ZN5boostlsINS_16exception_detail10clone_implINS1_14bad_exception_EEENS_11throw_file_EPKcEENS_9enable_ifINS1_23derives_boost_exceptionIT_EERKSA_E4typeESD_RKNS_10error_infoIT0_T1_EE
0x100006EA4	0x00000006	[  1] __ZN5boostlsINS_16exception_detail10clone_implINS1_14bad_exception_EEENS_11throw_line_EiEENS_9enable_ifINS1_23derives_boost_exceptionIT_EERKS8_E4typeESB_RKNS_10error_infoIT0_T1_EE
0x100006EAA	0x00000006	[  1] __ZN5boostlsINS_16exception_detail10clone_implINS1_14bad_exception_EEENS_15throw_function_EPKcEENS_9enable_ifINS1_23derives_boost_exceptionIT_EERKSA_E4typeESD_RKNS_10error_infoIT0_T1_EE
0x100006EB0	0x00000006	[  1] __ZN9__gnu_cxx13new_allocatorIiE10deallocateEPim
0x100006EB6	0x00000006	[  1] __ZN9__gnu_cxx13new_allocatorIiE8allocateEmPKv
0x100006EBC	0x00000006	[  1] __ZN9__gnu_cxx13new_allocatorIiEC2ERKS1_
0x100006EC2	0x00000006	[  1] __ZN9__gnu_cxx13new_allocatorIiEC2Ev
0x100006EC8	0x00000006	[  1] __ZN9__gnu_cxx13new_allocatorIiED2Ev
0x100006ECE	0x00000006	[  1] __ZNK5boost16exception_detail12refcount_ptrINS0_20error_info_containerEE3getEv
0x100006ED4	0x00000006	[  1] __ZNK5boost6system10error_code5valueEv
0x100006EDA	0x00000006	[  1] __ZNK5boost6system10error_code7messageEv
0x100006EE0	0x00000006	[  1] __ZNK5boost6system10error_code8categoryEv
0x100006EE6	0x00000006	[  1] __ZNK5boost6system10error_codecvPFvvEEv
0x100006EEC	0x00000006	[  1] __ZNK5boost6system14error_categoryeqERKS1_
0x100006EF2	0x00000006	[  1] __ZNK9__gnu_cxx13new_allocatorIiE8max_sizeEv
0x100006EF8	0x00000006	[  1] __ZNKSt16initializer_listIiE3endEv
0x100006EFE	0x00000006	[  1] __ZNKSt16initializer_listIiE4sizeEv
0x100006F04	0x00000006	[  1] __ZNKSt16initializer_listIiE5beginEv
0x100006F0A	0x00000006	[  1] __ZNSaIiEC1Ev
0x100006F10	0x00000006	[  1] __ZNSaIiEC2ERKS_
0x100006F16	0x00000006	[  1] __ZNSaIiED1Ev
0x100006F1C	0x00000006	[  1] __ZNSaIiED2Ev
0x100006F22	0x00000006	[  1] __ZNSt12_Destroy_auxILb1EE9__destroyIPiEEvT_S3_
0x100006F28	0x00000006	[  1] __ZNSt12_Vector_baseIiSaIiEE11_M_allocateEm
0x100006F2E	0x00000006	[  1] __ZNSt12_Vector_baseIiSaIiEE12_Vector_implC1ERKS0_
0x100006F34	0x00000006	[  1] __ZNSt12_Vector_baseIiSaIiEE12_Vector_implD1Ev
0x100006F3A	0x00000006	[  1] __ZNSt12_Vector_baseIiSaIiEE13_M_deallocateEPim
0x100006F40	0x00000006	[  1] __ZNSt12_Vector_baseIiSaIiEE19_M_get_Tp_allocatorEv
0x100006F46	0x00000006	[  1] __ZNSt12_Vector_baseIiSaIiEEC2ERKS0_
0x100006F4C	0x00000006	[  1] __ZNSt12_Vector_baseIiSaIiEED2Ev
0x100006F52	0x00000006	[  1] __ZNSt13bad_exceptionC2ERKS_
0x100006F58	0x00000006	[  1] __ZNSt13bad_exceptionC2Ev
0x100006F5E	0x00000006	[  1] __ZNSt13runtime_errorC2ERKS_
0x100006F64	0x00000006	[  1] __ZNSt16allocator_traitsISaIiEE10deallocateERS0_Pim
0x100006F6A	0x00000006	[  1] __ZNSt16allocator_traitsISaIiEE8allocateERS0_m
0x100006F70	0x00000006	[  1] __ZNSt20__uninitialized_copyILb0EE13__uninit_copyIPKiPiEET0_T_S6_S5_
0x100006F76	0x00000006	[  1] __ZNSt6vectorIiSaIiEE19_M_range_initializeIPKiEEvT_S5_St20forward_iterator_tag
0x100006F7C	0x00000006	[  1] __ZNSt6vectorIiSaIiEEC1ESt16initializer_listIiERKS0_
0x100006F82	0x00000006	[  1] __ZNSt9bad_allocC2ERKS_
0x100006F88	0x00000006	[  1] __ZNSt9bad_allocC2Ev
0x100006F8E	0x00000006	[  1] __ZNSt9exceptionC2ERKS_
0x100006F94	0x00000006	[  1] __ZNSt9exceptionC2Ev
0x100006F9A	0x00000006	[  1] __ZSt10_ConstructIiIRKiEEvPT_DpOT0_
0x100006FA0	0x00000006	[  1] __ZSt10__distanceIPKiENSt15iterator_traitsIT_E15difference_typeES3_S3_St26random_access_iterator_tag
0x100006FA6	0x00000006	[  1] __ZSt11__addressofIiEPT_RS0_
0x100006FAC	0x00000006	[  1] __ZSt18uninitialized_copyIPKiPiET0_T_S4_S3_
0x100006FB2	0x00000006	[  1] __ZSt19__iterator_categoryIPKiENSt15iterator_traitsIT_E17iterator_categoryERKS3_
0x100006FB8	0x00000006	[  1] __ZSt22__uninitialized_copy_aIPKiPiiET0_T_S4_S3_RSaIT1_E
0x100006FBE	0x00000006	[  1] __ZSt7forwardIRKiEOT_RNSt16remove_referenceIS2_E4typeE
0x100006FC4	0x00000006	[  1] __ZSt8_DestroyIPiEvT_S1_
0x100006FCA	0x00000006	[  1] __ZSt8_DestroyIPiiEvT_S1_RSaIT0_E
0x100006FD0	0x00000006	[  1] __ZSt8distanceIPKiENSt15iterator_traitsIT_E15difference_typeES3_S3_
0x100006FD6	0x00000006	[  1] __ZnwmPv
0x100006FDC	0x00000006	[  2] __ZN5boost6system15system_categoryEv
0x100006FE2	0x00000006	[  2] __ZN5boost6system16generic_categoryEv
0x100006FE8	0x00000006	[  3] __ZNKSs5c_strEv
0x100006FEE	0x00000006	[  3] __ZNKSs5emptyEv
0x100006FF4	0x00000006	[  3] __ZNKSt13runtime_error4whatEv
0x100006FFA	0x00000006	[  3] __ZNSaIcEC1Ev
0x100007000	0x00000006	[  3] __ZNSaIcED1Ev
0x100007006	0x00000006	[  3] __ZNSolsEPFRSoS_E
0x10000700C	0x00000006	[  3] __ZNSsC1EPKcRKSaIcE
0x100007012	0x00000006	[  3] __ZNSsC1ERKSs
0x100007018	0x00000006	[  3] __ZNSsC1Ev
0x10000701E	0x00000006	[  3] __ZNSsD1Ev
0x100007024	0x00000006	[  3] __ZNSsaSEPKc
0x10000702A	0x00000006	[  3] __ZNSspLEPKc
0x100007030	0x00000006	[  3] __ZNSspLERKSs
0x100007036	0x00000006	[  3] __ZNSt13bad_exceptionD2Ev
0x10000703C	0x00000006	[  3] __ZNSt13runtime_errorC2ERKSs
0x100007042	0x00000006	[  3] __ZNSt13runtime_errorD2Ev
0x100007048	0x00000006	[  3] __ZNSt8ios_base4InitC1Ev
0x10000704E	0x00000006	[  3] __ZNSt9bad_allocD2Ev
0x100007054	0x00000006	[  3] __ZNSt9exceptionD2Ev
0x10000705A	0x00000006	[  3] __ZSt17__throw_bad_allocv
0x100007060	0x00000006	[  3] __ZStlsISt11char_traitsIcEERSt13basic_ostreamIcT_ES5_PKc
0x100007066	0x00000006	[  3] __ZdlPv
0x10000706C	0x00000006	[  3] __Znwm
0x100007072	0x00000006	[  3] ___cxa_allocate_exception
0x100007078	0x00000006	[  3] ___cxa_begin_catch
0x10000707E	0x00000006	[  3] ___cxa_call_unexpected
0x100007084	0x00000006	[  3] ___cxa_end_catch
0x10000708A	0x00000006	[  3] ___cxa_free_exception
0x100007090	0x00000006	[  3] ___cxa_guard_abort
0x100007096	0x00000006	[  3] ___cxa_guard_acquire
0x10000709C	0x00000006	[  3] ___cxa_guard_release
0x1000070A2	0x00000006	[  3] ___cxa_rethrow
0x1000070A8	0x00000006	[  3] ___cxa_throw
0x1000070AE	0x00000006	[  4] __Unwind_Resume
0x1000070B4	0x00000006	[  4] ___cxa_atexit
0x1000070BA	0x00000006	[  4] _getchar
0x1000070C0	0x00000006	[  4] _pthread_key_create
0x1000070C6	0x00000006	[  4] _pthread_key_delete
0x1000070CC	0x0000000A	[  0] __ZN8socketio23socketio_client_handlerC1Ev
0x1000070D6	0x0000000A	[  0] __ZN8socketio23socketio_client_handlerD1Ev
0x1000070E0	0x00000010	[  0] helper helper
0x1000070F0	0x0000000A	[  2] __ZN5boost6system15system_categoryEv
0x1000070FA	0x0000000A	[  2] __ZN5boost6system16generic_categoryEv
0x100007104	0x0000000A	[  3] __ZNKSs5c_strEv
0x10000710E	0x0000000A	[  3] __ZNKSs5emptyEv
0x100007118	0x0000000A	[  3] __ZNKSt13runtime_error4whatEv
0x100007122	0x0000000A	[  3] __ZNSaIcEC1Ev
0x10000712C	0x0000000A	[  3] __ZNSaIcED1Ev
0x100007136	0x0000000A	[  3] __ZNSolsEPFRSoS_E
0x100007140	0x0000000A	[  3] __ZNSsC1EPKcRKSaIcE
0x10000714A	0x0000000A	[  3] __ZNSsC1ERKSs
0x100007154	0x0000000A	[  3] __ZNSsC1Ev
0x10000715E	0x0000000A	[  3] __ZNSsD1Ev
0x100007168	0x0000000A	[  3] __ZNSsaSEPKc
0x100007172	0x0000000A	[  3] __ZNSspLEPKc
0x10000717C	0x0000000A	[  3] __ZNSspLERKSs
0x100007186	0x0000000A	[  3] __ZNSt13bad_exceptionD2Ev
0x100007190	0x0000000A	[  3] __ZNSt13runtime_errorC2ERKSs
0x10000719A	0x0000000A	[  3] __ZNSt13runtime_errorD2Ev
0x1000071A4	0x0000000A	[  3] __ZNSt8ios_base4InitC1Ev
0x1000071AE	0x0000000A	[  3] __ZNSt9bad_allocD2Ev
0x1000071B8	0x0000000A	[  3] __ZNSt9exceptionD2Ev
0x1000071C2	0x0000000A	[  3] __ZSt17__throw_bad_allocv
0x1000071CC	0x0000000A	[  3] __ZStlsISt11char_traitsIcEERSt13basic_ostreamIcT_ES5_PKc
0x1000071D6	0x0000000A	[  3] __ZdlPv
0x1000071E0	0x0000000A	[  3] __Znwm
0x1000071EA	0x0000000A	[  3] ___cxa_allocate_exception
0x1000071F4	0x0000000A	[  3] ___cxa_begin_catch
0x1000071FE	0x0000000A	[  3] ___cxa_call_unexpected
0x100007208	0x0000000A	[  3] ___cxa_end_catch
0x100007212	0x0000000A	[  3] ___cxa_free_exception
0x10000721C	0x0000000A	[  3] ___cxa_guard_abort
0x100007226	0x0000000A	[  3] ___cxa_guard_acquire
0x100007230	0x0000000A	[  3] ___cxa_guard_release
0x10000723A	0x0000000A	[  3] ___cxa_rethrow
0x100007244	0x0000000A	[  3] ___cxa_throw
0x10000724E	0x0000000A	[  4] __Unwind_Resume
0x100007258	0x0000000A	[  4] ___cxa_atexit
0x100007262	0x0000000A	[  4] _getchar
0x10000726C	0x0000000A	[  4] _pthread_key_create
0x100007276	0x0000000A	[  4] _pthread_key_delete
0x100007280	0x00000001	[  1] __ZStL19piecewise_construct
0x100007281	0x00000001	[  1] __ZStL13allocator_arg
0x100007282	0x00000001	[  1] __ZStL6ignore
0x100007283	0x00000001	[  1] __ZN5boost9containerL13ordered_rangeE
0x100007284	0x00000001	[  1] __ZN5boost9containerL20ordered_unique_rangeE
0x100007285	0x00000001	[  1] __ZN5boost9containerL12default_initE
0x100007286	0x00000001	[  1] __ZN5boost9containerL10value_initE
0x100007287	0x00000001	[  1] __ZN5boostL10defer_lockE
0x100007288	0x00000001	[  1] __ZN5boostL11try_to_lockE
0x100007289	0x00000007	[  1] __ZN5boostL10adopt_lockE
0x100007290	0x00000010	[  1] _._175
0x1000072A0	0x00000002	[  1] __ZN11websocketppL16uri_default_portE
0x1000072A2	0x00000002	[  1] __ZN11websocketppL23uri_default_secure_portE
0x1000072A4	0x00000004	[  1] __ZN11websocketppL13major_versionE
0x1000072A8	0x00000004	[  1] __ZN11websocketppL13minor_versionE
0x1000072AC	0x00000004	[  1] __ZN11websocketppL13patch_versionE
0x1000072B0	0x00000010	[  1] __ZN11websocketppL15prerelease_flagE
0x1000072C0	0x00000020	[  1] __ZN11websocketppL10user_agentE
0x1000072E0	0x00000010	[  1] __ZN11websocketpp3md5L6hexvalE
0x1000072F0	0x0000000A	[  1] __ZN11websocketpp9processor9constantsL13upgrade_tokenE
0x1000072FA	0x00000026	[  1] __ZN11websocketpp9processor9constantsL16connection_tokenE
0x100007320	0x00000025	[  1] __ZN11websocketpp9processor9constantsL14handshake_guidE
0x100007345	0x00000003	[  1] __ZN11websocketpp4httpL16header_delimiterE
0x100007348	0x00000008	[  1] __ZN11websocketpp4httpL16header_separatorE
0x100007350	0x00000008	[  1] __ZN11websocketpp4httpL15max_header_sizeE
0x100007358	0x00000028	[  1] __ZN11websocketpp4httpL14istream_bufferE
0x100007380	0x00000100	[  1] __ZN11websocketpp4httpL12header_tokenE
0x100007480	0x00000004	[  1] __ZN11websocketpp5frameL19BASIC_HEADER_LENGTHE
0x100007484	0x00000004	[  1] __ZN11websocketpp5frameL17MAX_HEADER_LENGTHE
0x100007488	0x00000004	[  1] __ZN11websocketpp5frameL26MAX_EXTENDED_HEADER_LENGTHE
0x10000748C	0x00000001	[  1] __ZN11websocketpp5frameL11BHB0_OPCODEE
0x10000748D	0x00000001	[  1] __ZN11websocketpp5frameL9BHB0_RSV3E
0x10000748E	0x00000001	[  1] __ZN11websocketpp5frameL9BHB0_RSV2E
0x10000748F	0x00000001	[  1] __ZN11websocketpp5frameL9BHB0_RSV1E
0x100007490	0x00000001	[  1] __ZN11websocketpp5frameL8BHB0_FINE
0x100007491	0x00000001	[  1] __ZN11websocketpp5frameL12BHB1_PAYLOADE
0x100007492	0x00000001	[  1] __ZN11websocketpp5frameL9BHB1_MASKE
0x100007493	0x00000001	[  1] __ZN11websocketpp5frameL23payload_size_code_16bitE
0x100007494	0x00000004	[  1] __ZN11websocketpp5frameL23payload_size_code_64bitE
0x100007498	0x00000004	[  1] __ZN11websocketpp5frame6limitsL19basic_header_lengthE
0x10000749C	0x00000004	[  1] __ZN11websocketpp5frame6limitsL17max_header_lengthE
0x1000074A0	0x00000004	[  1] __ZN11websocketpp5frame6limitsL26max_extended_header_lengthE
0x1000074A4	0x00000002	[  1] __ZN11websocketpp5frame6limitsL18payload_size_basicE
0x1000074A6	0x00000002	[  1] __ZN11websocketpp5frame6limitsL21payload_size_extendedE
0x1000074A8	0x00000008	[  1] __ZN11websocketpp5frame6limitsL18payload_size_jumboE
0x1000074B0	0x00000002	[  1] __ZN11websocketpp5frame6limitsL17close_reason_sizeE
0x1000074B2	0x00000002	[  1] __ZN11websocketpp5close6statusL5blankE
0x1000074B4	0x00000002	[  1] __ZN11websocketpp5close6statusL14omit_handshakeE
0x1000074B6	0x00000002	[  1] __ZN11websocketpp5close6statusL14force_tcp_dropE
0x1000074B8	0x00000002	[  1] __ZN11websocketpp5close6statusL6normalE
0x1000074BA	0x00000002	[  1] __ZN11websocketpp5close6statusL10going_awayE
0x1000074BC	0x00000002	[  1] __ZN11websocketpp5close6statusL14protocol_errorE
0x1000074BE	0x00000002	[  1] __ZN11websocketpp5close6statusL16unsupported_dataE
0x1000074C0	0x00000002	[  1] __ZN11websocketpp5close6statusL9no_statusE
0x1000074C2	0x00000002	[  1] __ZN11websocketpp5close6statusL14abnormal_closeE
0x1000074C4	0x00000002	[  1] __ZN11websocketpp5close6statusL15invalid_payloadE
0x1000074C6	0x00000002	[  1] __ZN11websocketpp5close6statusL16policy_violationE
0x1000074C8	0x00000002	[  1] __ZN11websocketpp5close6statusL15message_too_bigE
0x1000074CA	0x00000002	[  1] __ZN11websocketpp5close6statusL18extension_requiredE
0x1000074CC	0x00000002	[  1] __ZN11websocketpp5close6statusL23internal_endpoint_errorE
0x1000074CE	0x00000002	[  1] __ZN11websocketpp5close6statusL15service_restartE
0x1000074D0	0x00000002	[  1] __ZN11websocketpp5close6statusL15try_again_laterE
0x1000074D2	0x00000002	[  1] __ZN11websocketpp5close6statusL13tls_handshakeE
0x1000074D4	0x00000002	[  1] __ZN11websocketpp5close6statusL9rsv_startE
0x1000074D6	0x00000002	[  1] __ZN11websocketpp5close6statusL7rsv_endE
0x1000074D8	0x00000002	[  1] __ZN11websocketpp5close6statusL11invalid_lowE
0x1000074DA	0x00000002	[  1] __ZN11websocketpp5close6statusL12invalid_highE
0x1000074DC	0x00000004	[  1] __ZN11websocketpp14utf8_validatorL11utf8_acceptE
0x1000074E0	0x00000020	[  1] __ZN11websocketpp14utf8_validatorL11utf8_rejectE
0x100007500	0x00000190	[  1] __ZN11websocketpp14utf8_validatorL5utf8dE
0x100007690	0x00000008	[  1] __ZN9__gnu_cxxL21__default_lock_policyE
0x100007698	0x00000008	[  1] __ZN5boostL4noneE
0x1000076A0	0x00000008	[  1] __ZN5boost9containerL19ADP_nodes_per_blockE
0x1000076A8	0x00000008	[  1] __ZN5boost9containerL19ADP_max_free_blocksE
0x1000076B0	0x00000008	[  1] __ZN5boost9containerL20ADP_overhead_percentE
0x1000076B8	0x00000008	[  1] __ZN5boost9containerL18ADP_only_alignmentE
0x1000076C0	0x00000008	[  1] __ZN5boost9containerL25NodeAlloc_nodes_per_blockE
0x1000076C8	0x00000004	[  1] __ZN5boost4asio6detailL14invalid_socketE
0x1000076CC	0x00000004	[  1] __ZN5boost4asio6detailL19socket_error_retvalE
0x1000076D0	0x00000004	[  1] __ZN5boost4asio6detailL19max_addr_v4_str_lenE
0x1000076D4	0x00000004	[  1] __ZN5boost4asio6detailL19max_addr_v6_str_lenE
0x1000076D8	0x00000004	[  1] __ZN5boost4asio6detailL11max_iov_lenE
0x1000076DC	0x00000004	[  1] __ZN5boost4asio6detailL26custom_socket_option_levelE
0x1000076E0	0x00000004	[  1] __ZN5boost4asio6detailL32enable_connection_aborted_optionE
0x1000076E4	0x00000004	[  1] __ZN5boost4asio6detailL18always_fail_optionE
0x1000076E8	0x00000008	[  1] __ZN5boost6detail15aligned_storageL22alignment_of_max_alignE
0x1000076F0	0x00000004	[  1] __ZN5boost6detail16static_log2_implL6n_zeroE
0x1000076F4	0x00000004	[  1] __ZN5boost6detail16static_log2_implL9initial_nE
0x1000076F8	0x00000004	[  1] __ZN5boost16exception_detail30clone_current_exception_resultL7successE
0x1000076FC	0x00000004	[  1] __ZN5boost16exception_detail30clone_current_exception_resultL9bad_allocE
0x100007700	0x00000004	[  1] __ZN5boost16exception_detail30clone_current_exception_resultL13bad_exceptionE
0x100007704	0x00000004	[  1] __ZN5boost16exception_detail30clone_current_exception_resultL13not_supportedE
0x100007708	0x00000038	[  1] __ZZN11websocketpp3md5L11md5_processEPNS0_11md5_state_sEPKhE1w
0x100007740	0x000000C0	[  1] __ZZN5boost16exception_detail27get_static_exception_objectINS0_10bad_alloc_EEENS_13exception_ptrEvE19__PRETTY_FUNCTION__
0x100007800	0x00000087	[  1] __ZZN5boost16exception_detail27get_static_exception_objectINS0_14bad_exception_EEENS_13exception_ptrEvE19__PRETTY_FUNCTION__
0x1000078C0	0x00000080	[  1] __ZTSN5boost6detail17sp_counted_impl_pINS_16exception_detail10clone_implINS2_14bad_exception_EEEEE
0x100007940	0x00000080	[  1] __ZTSN5boost6detail17sp_counted_impl_pINS_16exception_detail10clone_implINS2_10bad_alloc_EEEEE
0x1000079C0	0x00000060	[  1] __ZTSN5boost6detail17sp_counted_impl_pIN8socketio23socketio_client_handlerEEE
0x100007A20	0x00000040	[  1] __ZTSN5boost16exception_detail10clone_implINS0_14bad_exception_EEE
0x100007A60	0x00000060	[  1] __ZTSN5boost16exception_detail10clone_implINS0_10bad_alloc_EEE
0x100007AC0	0x00000080	[  1] __ZTSN5boost16exception_detail10clone_implINS0_19error_info_injectorINS_6system12system_errorEEEEE
0x100007B40	0x00000060	[  1] __ZTSN5boost16exception_detail19error_info_injectorINS_6system12system_errorEEE
0x100007BA0	0x00000040	[  1] __ZTSN5boost16exception_detail14bad_exception_E
0x100007BE0	0x00000040	[  1] __ZTSN5boost16exception_detail10bad_alloc_E
0x100007C20	0x00000040	[  1] __ZTSN5boost4asio5error6detail13misc_categoryE
0x100007C60	0x00000040	[  1] __ZTSN5boost4asio5error6detail17addrinfo_categoryE
0x100007CA0	0x00000030	[  1] __ZTSN5boost4asio5error6detail14netdb_categoryE
0x100007CD0	0x00000030	[  1] __ZTSN5boost6system12system_errorE
0x100007D00	0x00000020	[  1] __ZTSN5boost6system14error_categoryE
0x100007D20	0x00000040	[  1] __ZTSN5boost6detail15sp_counted_baseE
0x100007D60	0x00000030	[  1] __ZTSN5boost16exception_detail10clone_baseE
0x100007D90	0x00000030	[  1] __ZTSN5boost9exceptionE
0x100007DC0	0x00000024	[  1] __ZTSN5boost12noncopyable_11noncopyableE
0x100007DE8	0x00000003	[  1] literal string: : 
0x100007DEB	0x0000000B	[  1] literal string: asio.netdb
0x100007DF8	0x0000001F	[  1] literal string: Host not found (authoritative)
0x100007E18	0x00000034	[  1] literal string: Host not found (non-authoritative), try again later
0x100007E4C	0x00000001	[  1] literal string: 
0x100007E50	0x00000039	[  1] literal string: The query is valid, but it does not have associated data
0x100007E90	0x00000038	[  1] literal string: A non-recoverable error occurred during database lookup
0x100007EC8	0x00000011	[  1] literal string: asio.netdb error
0x100007ED9	0x0000000E	[  1] literal string: asio.addrinfo
0x100007EE7	0x00000012	[  1] literal string: Service not found
0x100007EF9	0x0000001A	[  1] literal string: Socket type not supported
0x100007F13	0x00000014	[  1] literal string: asio.addrinfo error
0x100007F27	0x0000000A	[  1] literal string: asio.misc
0x100007F31	0x0000000D	[  1] literal string: Already open
0x100007F3E	0x0000000C	[  1] literal string: End of file
0x100007F4A	0x00000012	[  1] literal string: Element not found
0x100007F60	0x0000003A	[  1] literal string: The descriptor does not fit into the select call's fd_set
0x100007F9A	0x00000010	[  1] literal string: asio.misc error
0x100007FAA	0x00000004	[  1] literal string: tss
0x100007FAE	0x0000000C	[  1] literal string: Exception: 
0x100007FC0	0x00000049	[  1] literal string: /opt/local/boost_1_57_0/include/boost/exception/detail/exception_ptr.hpp
0x100008010	0x00000041	[  1] literal string: ABCDEFGHIJKLMNOPQRSTUVWXYZabcdefghijklmnopqrstuvwxyz0123456789+/
0x100008058	0x00000020	[  1] CIE
0x100008078	0x00000040	[  1] FDE for: __ZNSt9exceptionC2Ev
0x1000080B8	0x00000040	[  1] FDE for: __ZNSt13bad_exceptionC2Ev
0x1000080F8	0x00000040	[  1] FDE for: __ZNSt9bad_allocC2Ev
0x100008138	0x00000040	[  1] FDE for: __ZnwmPv
0x100008178	0x00000040	[  1] FDE for: __ZNSt9exceptionC2ERKS_
0x1000081B8	0x00000040	[  1] FDE for: __ZN5boost10error_infoINS_15throw_function_EPKcEC1ES3_
0x1000081F8	0x00000040	[  1] FDE for: __ZN5boost10error_infoINS_11throw_file_EPKcEC1ES3_
0x100008238	0x00000040	[  1] FDE for: __ZN5boost10error_infoINS_11throw_line_EiEC1Ei
0x100008278	0x00000040	[  1] FDE for: __ZN5boost9exceptionC2Ev
0x1000082B8	0x00000040	[  1] FDE for: __ZN5boost9exceptionD2Ev
0x1000082F8	0x00000040	[  1] FDE for: __ZN5boost16exception_detail10clone_baseD2Ev
0x100008338	0x00000040	[  1] FDE for: __ZN5boost16exception_detail20copy_boost_exceptionEPNS_9exceptionEPKS1_
0x100008378	0x00000040	[  1] FDE for: __ZN5boost36throw_exception_assert_compatibilityERKSt9exception
0x1000083B8	0x00000040	[  1] FDE for: __ZN5boost6detail23atomic_exchange_and_addEPii
0x1000083F8	0x00000040	[  1] FDE for: __ZN5boost6detail16atomic_incrementEPi
0x100008438	0x00000040	[  1] FDE for: __ZN5boost6detail15sp_counted_baseC2Ev
0x100008478	0x00000040	[  1] FDE for: __ZN5boost6detail15sp_counted_baseD2Ev
0x1000084B8	0x00000040	[  1] FDE for: __ZN5boost6detail15sp_counted_base7destroyEv
0x1000084F8	0x00000040	[  1] FDE for: __ZN5boost6detail15sp_counted_base12add_ref_copyEv
0x100008538	0x00000040	[  1] FDE for: __ZN5boost6detail15sp_counted_base7releaseEv
0x100008578	0x00000040	[  1] FDE for: __ZN5boost6detail15sp_counted_base12weak_releaseEv
0x1000085B8	0x00000040	[  1] FDE for: __ZN5boost6detail12shared_countC1Ev
0x1000085F8	0x00000040	[  1] FDE for: __ZN5boost6detail12shared_countD1Ev
0x100008638	0x00000040	[  1] FDE for: __ZN5boost6detail12shared_countC1ERKS1_
0x100008678	0x00000040	[  1] FDE for: __ZN5boost6detail12shared_count4swapERS1_
0x1000086B8	0x00000040	[  1] FDE for: __ZN5boost6detail26sp_enable_shared_from_thisEz
0x1000086F8	0x00000040	[  1] FDE for: __ZN5boost4asio6detail11noncopyableC2Ev
0x100008738	0x00000040	[  1] FDE for: __ZN5boost4asio6detail11noncopyableD2Ev
0x100008778	0x00000040	[  1] FDE for: __ZN5boost6system14error_categoryD2Ev
0x1000087B8	0x00000040	[  1] FDE for: __ZNK5boost6system14error_categoryeqERKS1_
0x1000087F8	0x00000040	[  1] FDE for: __ZN5boost6system15error_conditionC1EiRKNS0_14error_categoryE
0x100008838	0x00000040	[  1] FDE for: __ZN5boost6systemeqERKNS0_15error_conditionES3_
0x100008878	0x00000040	[  1] FDE for: __ZN5boost6system10error_codeC1EiRKNS0_14error_categoryE
0x1000088B8	0x00000040	[  1] FDE for: __ZNK5boost6system10error_code5valueEv
0x1000088F8	0x00000040	[  1] FDE for: __ZNK5boost6system10error_code8categoryEv
0x100008938	0x00000040	[  1] FDE for: __ZNK5boost6system10error_code7messageEv
0x100008978	0x00000040	[  1] FDE for: __ZN5boost6system10error_code21unspecified_bool_trueEv
0x1000089B8	0x00000040	[  1] FDE for: __ZNK5boost6system10error_codecvPFvvEEv
0x1000089F8	0x00000040	[  1] FDE for: __ZNK5boost6system14error_category23default_error_conditionEi
0x100008A38	0x00000040	[  1] FDE for: __ZNK5boost6system14error_category10equivalentEiRKNS0_15error_conditionE
0x100008A78	0x00000040	[  1] FDE for: __ZNK5boost6system14error_category10equivalentERKNS0_10error_codeEi
0x100008AB8	0x00000040	[  1] FDE for: __ZN5boost4asio6detail11throw_errorERKNS_6system10error_codeEPKc
0x100008AF8	0x00000040	[  1] FDE for: __ZN5boost6system12system_errorC1ENS0_10error_codeEPKc
0x100008B38	0x00000040	[  1] FDE for: __ZN5boost6system12system_errorD2Ev
0x100008B78	0x00000040	[  1] FDE for: __ZN5boost6system12system_errorD1Ev
0x100008BB8	0x00000040	[  1] FDE for: __ZN5boost6system12system_errorD0Ev
0x100008BF8	0x00000040	[  1] FDE for: __ZNK5boost6system12system_error4whatEv
0x100008C38	0x00000038	[  1] FDE for: __ZN5boost4asio6detail14do_throw_errorERKNS_6system10error_codeEPKc
0x100008C70	0x00000040	[  1] FDE for: __ZN5boost4asio5error19get_system_categoryEv
0x100008CB0	0x00000040	[  1] FDE for: __ZNK5boost4asio5error6detail14netdb_category4nameEv
0x100008CF0	0x00000040	[  1] FDE for: __ZNK5boost4asio5error6detail14netdb_category7messageEi
0x100008D30	0x00000040	[  1] FDE for: __ZN5boost4asio5error18get_netdb_categoryEv
0x100008D70	0x00000040	[  1] FDE for: __ZNK5boost4asio5error6detail17addrinfo_category4nameEv
0x100008DB0	0x00000040	[  1] FDE for: __ZNK5boost4asio5error6detail17addrinfo_category7messageEi
0x100008DF0	0x00000040	[  1] FDE for: __ZN5boost4asio5error21get_addrinfo_categoryEv
0x100008E30	0x00000040	[  1] FDE for: __ZNK5boost4asio5error6detail13misc_category4nameEv
0x100008E70	0x00000040	[  1] FDE for: __ZNK5boost4asio5error6detail13misc_category7messageEi
0x100008EB0	0x00000040	[  1] FDE for: __ZN5boost4asio5error17get_misc_categoryEv
0x100008EF0	0x00000040	[  1] FDE for: __ZN5boost4asio6detail20posix_tss_ptr_createERm
0x100008F30	0x00000040	[  1] FDE for: __ZN5boost4asio10io_service2idC2Ev
0x100008F70	0x00000040	[  1] FDE for: __ZN11websocketpp3md5L11md5_processEPNS0_11md5_state_sEPKh
0x100008FB0	0x00000040	[  1] FDE for: __ZN5boost10shared_ptrIKNS_16exception_detail10clone_baseEED1Ev
0x100008FF0	0x00000040	[  1] FDE for: __ZN5boost13exception_ptrC1ERKNS_10shared_ptrIKNS_16exception_detail10clone_baseEEE
0x100009030	0x00000040	[  1] FDE for: __ZN5boost16exception_detail10bad_alloc_D2Ev
0x100009070	0x00000040	[  1] FDE for: __ZN5boost16exception_detail10bad_alloc_D1Ev
0x1000090B0	0x00000028	[  1] FDE for: __ZThn40_N5boost16exception_detail10bad_alloc_D1Ev
0x1000090D8	0x00000040	[  1] FDE for: __ZN5boost16exception_detail10bad_alloc_D0Ev
0x100009118	0x00000028	[  1] FDE for: __ZThn40_N5boost16exception_detail10bad_alloc_D0Ev
0x100009140	0x00000040	[  1] FDE for: __ZN5boost16exception_detail14bad_exception_D2Ev
0x100009180	0x00000040	[  1] FDE for: __ZN5boost16exception_detail14bad_exception_D1Ev
0x1000091C0	0x00000028	[  1] FDE for: __ZThn40_N5boost16exception_detail14bad_exception_D1Ev
0x1000091E8	0x00000040	[  1] FDE for: __ZN5boost16exception_detail14bad_exception_D0Ev
0x100009228	0x00000028	[  1] FDE for: __ZThn40_N5boost16exception_detail14bad_exception_D0Ev
0x100009250	0x00000040	[  1] FDE for: __ZN5boost9exceptionC2ERKS0_
0x100009290	0x00000040	[  1] FDE for: __ZN5boost13exception_ptrD1Ev
0x1000092D0	0x00000040	[  1] FDE for: __ZN5boost13exception_ptrC1ERKS0_
0x100009310	0x00000040	[  1] FDE for: __ZN5boost10shared_ptrIN8socketio23socketio_client_handlerEED1Ev
0x100009350	0x00000048	[  1] FDE for: _main
0x100009398	0x00000040	[  1] FDE for: __ZN5boost16exception_detail12refcount_ptrINS0_20error_info_containerEEC1Ev
0x1000093D8	0x00000040	[  1] FDE for: __ZN5boost16exception_detail12refcount_ptrINS0_20error_info_containerEED1Ev
0x100009418	0x00000040	[  1] FDE for: __ZNK5boost16exception_detail12refcount_ptrINS0_20error_info_containerEE3getEv
0x100009458	0x00000040	[  1] FDE for: __ZN5boost16exception_detail12refcount_ptrINS0_20error_info_containerEEaSERKS3_
0x100009498	0x00000040	[  1] FDE for: __ZN5boost16exception_detail10clone_baseC2ERKS1_
0x1000094D8	0x00000040	[  1] FDE for: __ZNSt13runtime_errorC2ERKS_
0x100009518	0x00000040	[  1] FDE for: __ZN5boost6system12system_errorC2ERKS1_
0x100009558	0x00000040	[  1] FDE for: __ZN5boost16exception_detail19error_info_injectorINS_6system12system_errorEEC2ERKS4_
0x100009598	0x00000040	[  1] FDE for: __ZN5boost16exception_detail10clone_implINS0_19error_info_injectorINS_6system12system_errorEEEEC1ERKS6_
0x1000095D8	0x00000040	[  1] FDE for: __ZN5boost15throw_exceptionINS_6system12system_errorEEEvRKT_
0x100009618	0x00000040	[  1] FDE for: __ZN5boost4asio6detail7tss_ptrINS1_10call_stackINS1_15task_io_serviceENS1_27task_io_service_thread_infoEE7contextEEC1Ev
0x100009658	0x00000040	[  1] FDE for: __ZN5boost4asio10io_service2idD2Ev
0x100009698	0x00000040	[  1] FDE for: __ZN5boost4asio6detail10service_idINS1_14kqueue_reactorEEC1Ev
0x1000096D8	0x00000040	[  1] FDE for: __ZN5boost4asio6detail10service_idINS1_15task_io_serviceEEC1Ev
0x100009718	0x00000040	[  1] FDE for: __ZN5boost3argILi1EEC1Ev
0x100009758	0x00000040	[  1] FDE for: __ZN5boost3argILi2EEC1Ev
0x100009798	0x00000040	[  1] FDE for: __ZN5boost4asio6detail7tss_ptrINS1_10call_stackINS1_14strand_service11strand_implEhE7contextEEC1Ev
0x1000097D8	0x00000040	[  1] FDE for: __ZN5boost4asio6detail10service_idINS1_14strand_serviceEEC1Ev
0x100009818	0x00000040	[  1] FDE for: __ZN5boost3argILi3EEC1Ev
0x100009858	0x00000040	[  1] FDE for: __ZN5boost3argILi4EEC1Ev
0x100009898	0x00000040	[  1] FDE for: __ZN5boost3argILi5EEC1Ev
0x1000098D8	0x00000040	[  1] FDE for: __ZN5boost3argILi6EEC1Ev
0x100009918	0x00000040	[  1] FDE for: __ZN5boost3argILi7EEC1Ev
0x100009958	0x00000040	[  1] FDE for: __ZN5boost3argILi8EEC1Ev
0x100009998	0x00000040	[  1] FDE for: __ZN5boost3argILi9EEC1Ev
0x1000099D8	0x00000040	[  1] FDE for: __ZNSaIiEC1Ev
0x100009A18	0x00000040	[  1] FDE for: __ZNSaIiED2Ev
0x100009A58	0x00000040	[  1] FDE for: __ZNSaIiED1Ev
0x100009A98	0x00000040	[  1] FDE for: __ZNSt6vectorIiSaIiEED1Ev
0x100009AD8	0x00000040	[  1] FDE for: __ZNKSt16initializer_listIiE5beginEv
0x100009B18	0x00000040	[  1] FDE for: __ZNKSt16initializer_listIiE4sizeEv
0x100009B58	0x00000040	[  1] FDE for: __ZNKSt16initializer_listIiE3endEv
0x100009B98	0x00000050	[  1] FDE for: __ZNSt6vectorIiSaIiEEC1ESt16initializer_listIiERKS0_
0x100009BE8	0x00000040	[  1] FDE for: __ZN5boost16exception_detail12refcount_ptrINS0_20error_info_containerEE5adoptEPS2_
0x100009C28	0x00000040	[  1] FDE for: __ZN5boost16exception_detail12refcount_ptrINS0_20error_info_containerEEC1ERKS3_
0x100009C68	0x00000040	[  1] FDE for: __ZN5boost10shared_ptrIKNS_16exception_detail10clone_baseEEC1ERKS4_
0x100009CA8	0x00000040	[  1] FDE for: __ZN5boost16exception_detail10bad_alloc_C1Ev
0x100009CE8	0x00000040	[  1] FDE for: __ZNSt9bad_allocC2ERKS_
0x100009D28	0x00000040	[  1] FDE for: __ZN5boost16exception_detail10bad_alloc_C2ERKS1_
0x100009D68	0x00000040	[  1] FDE for: __ZN5boost16exception_detail10clone_implINS0_10bad_alloc_EEC1ERKS3_
0x100009DA8	0x00000048	[  1] FDE for: __ZN5boost16exception_detail27get_static_exception_objectINS0_10bad_alloc_EEENS_13exception_ptrEv
0x100009DF0	0x00000040	[  1] FDE for: __ZN5boost16exception_detail14bad_exception_C1Ev
0x100009E30	0x00000040	[  1] FDE for: __ZNSt13bad_exceptionC2ERKS_
0x100009E70	0x00000040	[  1] FDE for: __ZN5boost16exception_detail14bad_exception_C2ERKS1_
0x100009EB0	0x00000040	[  1] FDE for: __ZN5boost16exception_detail10clone_implINS0_14bad_exception_EEC1ERKS3_
0x100009EF0	0x00000048	[  1] FDE for: __ZN5boost16exception_detail27get_static_exception_objectINS0_14bad_exception_EEENS_13exception_ptrEv
0x100009F38	0x00000040	[  1] FDE for: __ZN5boost10shared_ptrIN8socketio23socketio_client_handlerEEC1IS2_EEPT_
0x100009F78	0x00000040	[  1] FDE for: __ZN5boost16exception_detail12refcount_ptrINS0_20error_info_containerEE7releaseEv
0x100009FB8	0x00000040	[  1] FDE for: __ZN5boost17enable_error_infoINS_6system12system_errorEEENS_16exception_detail29enable_error_info_return_typeIT_E4typeERKS5_
0x100009FF8	0x00000040	[  1] FDE for: __ZN5boost16exception_detail19error_info_injectorINS_6system12system_errorEED2Ev
0x10000A038	0x00000040	[  1] FDE for: __ZN5boost16exception_detail19error_info_injectorINS_6system12system_errorEED1Ev
0x10000A078	0x00000028	[  1] FDE for: __ZThn40_N5boost16exception_detail19error_info_injectorINS_6system12system_errorEED1Ev
0x10000A0A0	0x00000040	[  1] FDE for: __ZN5boost16exception_detail19error_info_injectorINS_6system12system_errorEED0Ev
0x10000A0E0	0x00000028	[  1] FDE for: __ZThn40_N5boost16exception_detail19error_info_injectorINS_6system12system_errorEED0Ev
0x10000A108	0x00000040	[  1] FDE for: __ZN5boost24enable_current_exceptionINS_16exception_detail19error_info_injectorINS_6system12system_errorEEEEENS1_10clone_implIT_EERKS7_
0x10000A148	0x00000040	[  1] FDE for: __ZN5boost16exception_detail10clone_implINS0_19error_info_injectorINS_6system12system_errorEEEED1Ev
0x10000A188	0x00000028	[  1] FDE for: __ZTv0_n40_N5boost16exception_detail10clone_implINS0_19error_info_injectorINS_6system12system_errorEEEED1Ev
0x10000A1B0	0x00000028	[  1] FDE for: __ZThn40_N5boost16exception_detail10clone_implINS0_19error_info_injectorINS_6system12system_errorEEEED1Ev
0x10000A1D8	0x00000040	[  1] FDE for: __ZN5boost16exception_detail10clone_implINS0_19error_info_injectorINS_6system12system_errorEEEED0Ev
0x10000A218	0x00000028	[  1] FDE for: __ZThn40_N5boost16exception_detail10clone_implINS0_19error_info_injectorINS_6system12system_errorEEEED0Ev
0x10000A240	0x00000028	[  1] FDE for: __ZTv0_n40_N5boost16exception_detail10clone_implINS0_19error_info_injectorINS_6system12system_errorEEEED0Ev
0x10000A268	0x00000040	[  1] FDE for: __ZN5boost4asio6detail13posix_tss_ptrINS1_10call_stackINS1_15task_io_serviceENS1_27task_io_service_thread_infoEE7contextEEC2Ev
0x10000A2A8	0x00000040	[  1] FDE for: __ZN5boost4asio6detail13posix_tss_ptrINS1_10call_stackINS1_15task_io_serviceENS1_27task_io_service_thread_infoEE7contextEED2Ev
0x10000A2E8	0x00000040	[  1] FDE for: __ZN5boost4asio6detail13posix_tss_ptrINS1_10call_stackINS1_14strand_service11strand_implEhE7contextEEC2Ev
0x10000A328	0x00000040	[  1] FDE for: __ZN5boost4asio6detail13posix_tss_ptrINS1_10call_stackINS1_14strand_service11strand_implEhE7contextEED2Ev
0x10000A368	0x00000040	[  1] FDE for: __ZN9__gnu_cxx13new_allocatorIiEC2Ev
0x10000A3A8	0x00000040	[  1] FDE for: __ZN9__gnu_cxx13new_allocatorIiED2Ev
0x10000A3E8	0x00000040	[  1] FDE for: __ZNSt12_Vector_baseIiSaIiEE12_Vector_implD1Ev
0x10000A428	0x00000040	[  1] FDE for: __ZNSt12_Vector_baseIiSaIiEED2Ev
0x10000A468	0x00000040	[  1] FDE for: __ZNSt12_Vector_baseIiSaIiEE19_M_get_Tp_allocatorEv
0x10000A4A8	0x00000040	[  1] FDE for: __ZSt8_DestroyIPiiEvT_S1_RSaIT0_E
0x10000A4E8	0x00000040	[  1] FDE for: __ZNSt12_Vector_baseIiSaIiEEC2ERKS0_
0x10000A528	0x00000040	[  1] FDE for: __ZNSt6vectorIiSaIiEE19_M_range_initializeIPKiEEvT_S5_St20forward_iterator_tag
0x10000A568	0x00000040	[  1] FDE for: __ZN5boost16exception_detail12refcount_ptrINS0_20error_info_containerEE7add_refEv
0x10000A5A8	0x00000040	[  1] FDE for: __ZN5boost16exception_detail10clone_baseC2Ev
0x10000A5E8	0x00000040	[  1] FDE for: __ZN5boost16exception_detail10clone_implINS0_10bad_alloc_EEC1ERKS2_
0x10000A628	0x00000040	[  1] FDE for: __ZN5boost16exception_detail10clone_implINS0_10bad_alloc_EED1Ev
0x10000A668	0x00000028	[  1] FDE for: __ZThn40_N5boost16exception_detail10clone_implINS0_10bad_alloc_EED1Ev
0x10000A690	0x00000028	[  1] FDE for: __ZTv0_n40_N5boost16exception_detail10clone_implINS0_10bad_alloc_EED1Ev
0x10000A6B8	0x00000040	[  1] FDE for: __ZN5boost16exception_detail10clone_implINS0_10bad_alloc_EED0Ev
0x10000A6F8	0x00000028	[  1] FDE for: __ZThn40_N5boost16exception_detail10clone_implINS0_10bad_alloc_EED0Ev
0x10000A720	0x00000028	[  1] FDE for: __ZTv0_n40_N5boost16exception_detail10clone_implINS0_10bad_alloc_EED0Ev
0x10000A748	0x00000040	[  1] FDE for: __ZN5boostlsINS_16exception_detail10clone_implINS1_10bad_alloc_EEENS_15throw_function_EPKcEENS_9enable_ifINS1_23derives_boost_exceptionIT_EERKSA_E4typeESD_RKNS_10error_infoIT0_T1_EE
0x10000A788	0x00000040	[  1] FDE for: __ZN5boostlsINS_16exception_detail10clone_implINS1_10bad_alloc_EEENS_11throw_file_EPKcEENS_9enable_ifINS1_23derives_boost_exceptionIT_EERKSA_E4typeESD_RKNS_10error_infoIT0_T1_EE
0x10000A7C8	0x00000040	[  1] FDE for: __ZN5boostlsINS_16exception_detail10clone_implINS1_10bad_alloc_EEENS_11throw_line_EiEENS_9enable_ifINS1_23derives_boost_exceptionIT_EERKS8_E4typeESB_RKNS_10error_infoIT0_T1_EE
0x10000A808	0x00000040	[  1] FDE for: __ZN5boost10shared_ptrIKNS_16exception_detail10clone_baseEEC1INS1_10clone_implINS1_10bad_alloc_EEEEEPT_
0x10000A848	0x00000040	[  1] FDE for: __ZN5boost16exception_detail10clone_implINS0_14bad_exception_EEC1ERKS2_
0x10000A888	0x00000040	[  1] FDE for: __ZN5boost16exception_detail10clone_implINS0_14bad_exception_EED1Ev
0x10000A8C8	0x00000028	[  1] FDE for: __ZThn40_N5boost16exception_detail10clone_implINS0_14bad_exception_EED1Ev
0x10000A8F0	0x00000028	[  1] FDE for: __ZTv0_n40_N5boost16exception_detail10clone_implINS0_14bad_exception_EED1Ev
0x10000A918	0x00000040	[  1] FDE for: __ZN5boost16exception_detail10clone_implINS0_14bad_exception_EED0Ev
0x10000A958	0x00000028	[  1] FDE for: __ZThn40_N5boost16exception_detail10clone_implINS0_14bad_exception_EED0Ev
0x10000A980	0x00000028	[  1] FDE for: __ZTv0_n40_N5boost16exception_detail10clone_implINS0_14bad_exception_EED0Ev
0x10000A9A8	0x00000040	[  1] FDE for: __ZN5boostlsINS_16exception_detail10clone_implINS1_14bad_exception_EEENS_15throw_function_EPKcEENS_9enable_ifINS1_23derives_boost_exceptionIT_EERKSA_E4typeESD_RKNS_10error_infoIT0_T1_EE
0x10000A9E8	0x00000040	[  1] FDE for: __ZN5boostlsINS_16exception_detail10clone_implINS1_14bad_exception_EEENS_11throw_file_EPKcEENS_9enable_ifINS1_23derives_boost_exceptionIT_EERKSA_E4typeESD_RKNS_10error_infoIT0_T1_EE
0x10000AA28	0x00000040	[  1] FDE for: __ZN5boostlsINS_16exception_detail10clone_implINS1_14bad_exception_EEENS_11throw_line_EiEENS_9enable_ifINS1_23derives_boost_exceptionIT_EERKS8_E4typeESB_RKNS_10error_infoIT0_T1_EE
0x10000AA68	0x00000040	[  1] FDE for: __ZN5boost10shared_ptrIKNS_16exception_detail10clone_baseEEC1INS1_10clone_implINS1_14bad_exception_EEEEEPT_
0x10000AAA8	0x00000040	[  1] FDE for: __ZN5boost6detail20sp_pointer_constructIN8socketio23socketio_client_handlerES3_EEvPNS_10shared_ptrIT_EEPT0_RNS0_12shared_countE
0x10000AAE8	0x00000040	[  1] FDE for: __ZN5boost16exception_detail19error_info_injectorINS_6system12system_errorEEC1ERKS3_
0x10000AB28	0x00000040	[  1] FDE for: __ZN5boost16exception_detail10clone_implINS0_19error_info_injectorINS_6system12system_errorEEEEC1ERKS5_
0x10000AB68	0x00000040	[  1] FDE for: __ZNSt12_Vector_baseIiSaIiEE12_Vector_implC1ERKS0_
0x10000ABA8	0x00000040	[  1] FDE for: __ZNSt12_Vector_baseIiSaIiEE13_M_deallocateEPim
0x10000ABE8	0x00000040	[  1] FDE for: __ZSt8_DestroyIPiEvT_S1_
0x10000AC28	0x00000040	[  1] FDE for: __ZSt8distanceIPKiENSt15iterator_traitsIT_E15difference_typeES3_S3_
0x10000AC68	0x00000040	[  1] FDE for: __ZNSt12_Vector_baseIiSaIiEE11_M_allocateEm
0x10000ACA8	0x00000040	[  1] FDE for: __ZSt22__uninitialized_copy_aIPKiPiiET0_T_S4_S3_RSaIT1_E
0x10000ACE8	0x00000040	[  1] FDE for: __ZN5boost16exception_detail8set_infoINS0_10clone_implINS0_10bad_alloc_EEEEERKT_S7_RKNS_10error_infoINS_15throw_function_EPKcEE
0x10000AD28	0x00000040	[  1] FDE for: __ZN5boost16exception_detail8set_infoINS0_10clone_implINS0_10bad_alloc_EEEEERKT_S7_RKNS_10error_infoINS_11throw_file_EPKcEE
0x10000AD68	0x00000040	[  1] FDE for: __ZN5boost16exception_detail8set_infoINS0_10clone_implINS0_10bad_alloc_EEEEERKT_S7_RKNS_10error_infoINS_11throw_line_EiEE
0x10000ADA8	0x00000040	[  1] FDE for: __ZN5boost6detail20sp_pointer_constructIKNS_16exception_detail10clone_baseENS2_10clone_implINS2_10bad_alloc_EEEEEvPNS_10shared_ptrIT_EEPT0_RNS0_12shared_countE
0x10000ADE8	0x00000040	[  1] FDE for: __ZN5boost16exception_detail8set_infoINS0_10clone_implINS0_14bad_exception_EEEEERKT_S7_RKNS_10error_infoINS_15throw_function_EPKcEE
0x10000AE28	0x00000040	[  1] FDE for: __ZN5boost16exception_detail8set_infoINS0_10clone_implINS0_14bad_exception_EEEEERKT_S7_RKNS_10error_infoINS_11throw_file_EPKcEE
0x10000AE68	0x00000040	[  1] FDE for: __ZN5boost16exception_detail8set_infoINS0_10clone_implINS0_14bad_exception_EEEEERKT_S7_RKNS_10error_infoINS_11throw_line_EiEE
0x10000AEA8	0x00000040	[  1] FDE for: __ZN5boost6detail20sp_pointer_constructIKNS_16exception_detail10clone_baseENS2_10clone_implINS2_14bad_exception_EEEEEvPNS_10shared_ptrIT_EEPT0_RNS0_12shared_countE
0x10000AEE8	0x00000040	[  1] FDE for: __ZN5boost6detail12shared_countC1IN8socketio23socketio_client_handlerEEEPT_
0x10000AF28	0x00000040	[  1] FDE for: __ZNSaIiEC2ERKS_
0x10000AF68	0x00000040	[  1] FDE for: __ZNSt16allocator_traitsISaIiEE10deallocateERS0_Pim
0x10000AFA8	0x00000040	[  1] FDE for: __ZNSt12_Destroy_auxILb1EE9__destroyIPiEEvT_S3_
0x10000AFE8	0x00000040	[  1] FDE for: __ZSt19__iterator_categoryIPKiENSt15iterator_traitsIT_E17iterator_categoryERKS3_
0x10000B028	0x00000040	[  1] FDE for: __ZSt10__distanceIPKiENSt15iterator_traitsIT_E15difference_typeES3_S3_St26random_access_iterator_tag
0x10000B068	0x00000040	[  1] FDE for: __ZNSt16allocator_traitsISaIiEE8allocateERS0_m
0x10000B0A8	0x00000040	[  1] FDE for: __ZSt18uninitialized_copyIPKiPiET0_T_S4_S3_
0x10000B0E8	0x00000040	[  1] FDE for: __ZN5boost6detail12shared_countC1INS_16exception_detail10clone_implINS3_10bad_alloc_EEEEEPT_
0x10000B128	0x00000040	[  1] FDE for: __ZN5boost6detail12shared_countC1INS_16exception_detail10clone_implINS3_14bad_exception_EEEEEPT_
0x10000B168	0x00000040	[  1] FDE for: __ZN5boost6detail17sp_counted_impl_pIN8socketio23socketio_client_handlerEEC1EPS3_
0x10000B1A8	0x00000040	[  1] FDE for: __ZN5boost14checked_deleteIN8socketio23socketio_client_handlerEEEvPT_
0x10000B1E8	0x00000040	[  1] FDE for: __ZN9__gnu_cxx13new_allocatorIiEC2ERKS1_
0x10000B228	0x00000040	[  1] FDE for: __ZN9__gnu_cxx13new_allocatorIiE10deallocateEPim
0x10000B268	0x00000040	[  1] FDE for: __ZN9__gnu_cxx13new_allocatorIiE8allocateEmPKv
0x10000B2A8	0x00000040	[  1] FDE for: __ZNSt20__uninitialized_copyILb0EE13__uninit_copyIPKiPiEET0_T_S6_S5_
0x10000B2E8	0x00000040	[  1] FDE for: __ZN5boost6detail17sp_counted_impl_pINS_16exception_detail10clone_implINS2_10bad_alloc_EEEEC1EPS5_
0x10000B328	0x00000040	[  1] FDE for: __ZN5boost14checked_deleteINS_16exception_detail10clone_implINS1_10bad_alloc_EEEEEvPT_
0x10000B368	0x00000040	[  1] FDE for: __ZN5boost6detail17sp_counted_impl_pINS_16exception_detail10clone_implINS2_14bad_exception_EEEEC1EPS5_
0x10000B3A8	0x00000040	[  1] FDE for: __ZN5boost14checked_deleteINS_16exception_detail10clone_implINS1_14bad_exception_EEEEEvPT_
0x10000B3E8	0x00000040	[  1] FDE for: __ZN5boost4asio6detail10service_idINS0_21stream_socket_serviceINS0_2ip3tcpEEEEC1Ev
0x10000B428	0x00000040	[  1] FDE for: __ZNK9__gnu_cxx13new_allocatorIiE8max_sizeEv
0x10000B468	0x00000040	[  1] FDE for: __ZSt11__addressofIiEPT_RS0_
0x10000B4A8	0x00000040	[  1] FDE for: __ZSt7forwardIRKiEOT_RNSt16remove_referenceIS2_E4typeE
0x10000B4E8	0x00000040	[  1] FDE for: __ZSt10_ConstructIiIRKiEEvPT_DpOT0_
0x10000B528	0x00000040	[  1] FDE for: __ZN5boost6detail17sp_counted_impl_pINS_16exception_detail10clone_implINS2_14bad_exception_EEEED1Ev
0x10000B568	0x00000040	[  1] FDE for: __ZN5boost6detail17sp_counted_impl_pINS_16exception_detail10clone_implINS2_14bad_exception_EEEED0Ev
0x10000B5A8	0x00000040	[  1] FDE for: __ZN5boost6detail17sp_counted_impl_pINS_16exception_detail10clone_implINS2_10bad_alloc_EEEED1Ev
0x10000B5E8	0x00000040	[  1] FDE for: __ZN5boost6detail17sp_counted_impl_pINS_16exception_detail10clone_implINS2_10bad_alloc_EEEED0Ev
0x10000B628	0x00000040	[  1] FDE for: __ZN5boost6detail17sp_counted_impl_pIN8socketio23socketio_client_handlerEED1Ev
0x10000B668	0x00000040	[  1] FDE for: __ZN5boost6detail17sp_counted_impl_pIN8socketio23socketio_client_handlerEED0Ev
0x10000B6A8	0x00000040	[  1] FDE for: __ZN5boost4asio5error6detail13misc_categoryD1Ev
0x10000B6E8	0x00000040	[  1] FDE for: __ZN5boost4asio5error6detail13misc_categoryD0Ev
0x10000B728	0x00000040	[  1] FDE for: __ZN5boost4asio5error6detail17addrinfo_categoryD1Ev
0x10000B768	0x00000040	[  1] FDE for: __ZN5boost4asio5error6detail17addrinfo_categoryD0Ev
0x10000B7A8	0x00000040	[  1] FDE for: __ZN5boost4asio5error6detail14netdb_categoryD1Ev
0x10000B7E8	0x00000040	[  1] FDE for: __ZN5boost4asio5error6detail14netdb_categoryD0Ev
0x10000B828	0x00000040	[  1] FDE for: __ZN5boost4asio6detail7tss_ptrINS1_10call_stackINS1_15task_io_serviceENS1_27task_io_service_thread_infoEE7contextEED1Ev
0x10000B868	0x00000040	[  1] FDE for: __ZN5boost4asio6detail10service_idINS1_14kqueue_reactorEED1Ev
0x10000B8A8	0x00000040	[  1] FDE for: __ZN5boost4asio6detail10service_idINS1_15task_io_serviceEED1Ev
0x10000B8E8	0x00000040	[  1] FDE for: __ZN5boost4asio6detail7tss_ptrINS1_10call_stackINS1_14strand_service11strand_implEhE7contextEED1Ev
0x10000B928	0x00000040	[  1] FDE for: __ZN5boost4asio6detail10service_idINS1_14strand_serviceEED1Ev
0x10000B968	0x00000040	[  1] FDE for: __ZN5boost4asio6detail10service_idINS0_21stream_socket_serviceINS0_2ip3tcpEEEED1Ev
0x10000B9A8	0x00000048	[  1] FDE for: __Z41__static_initialization_and_destruction_0ii
0x10000B9F0	0x00000040	[  1] FDE for: __ZN5boost6detail17sp_counted_impl_pINS_16exception_detail10clone_implINS2_14bad_exception_EEEE7disposeEv
0x10000BA30	0x00000040	[  1] FDE for: __ZN5boost6detail17sp_counted_impl_pINS_16exception_detail10clone_implINS2_14bad_exception_EEEE11get_deleterERKSt9type_info
0x10000BA70	0x00000040	[  1] FDE for: __ZN5boost6detail17sp_counted_impl_pINS_16exception_detail10clone_implINS2_14bad_exception_EEEE19get_untyped_deleterEv
0x10000BAB0	0x00000040	[  1] FDE for: __ZN5boost6detail17sp_counted_impl_pINS_16exception_detail10clone_implINS2_10bad_alloc_EEEE7disposeEv
0x10000BAF0	0x00000040	[  1] FDE for: __ZN5boost6detail17sp_counted_impl_pINS_16exception_detail10clone_implINS2_10bad_alloc_EEEE11get_deleterERKSt9type_info
0x10000BB30	0x00000040	[  1] FDE for: __ZN5boost6detail17sp_counted_impl_pINS_16exception_detail10clone_implINS2_10bad_alloc_EEEE19get_untyped_deleterEv
0x10000BB70	0x00000040	[  1] FDE for: __ZN5boost6detail17sp_counted_impl_pIN8socketio23socketio_client_handlerEE7disposeEv
0x10000BBB0	0x00000040	[  1] FDE for: __ZN5boost6detail17sp_counted_impl_pIN8socketio23socketio_client_handlerEE11get_deleterERKSt9type_info
0x10000BBF0	0x00000040	[  1] FDE for: __ZN5boost6detail17sp_counted_impl_pIN8socketio23socketio_client_handlerEE19get_untyped_deleterEv
0x10000BC30	0x00000050	[  1] FDE for: __ZNK5boost16exception_detail10clone_implINS0_14bad_exception_EE5cloneEv
0x10000BC80	0x00000028	[  1] FDE for: __ZTv0_n24_NK5boost16exception_detail10clone_implINS0_14bad_exception_EE5cloneEv
0x10000BCA8	0x00000040	[  1] FDE for: __ZNK5boost16exception_detail10clone_implINS0_14bad_exception_EE7rethrowEv
0x10000BCE8	0x00000028	[  1] FDE for: __ZTv0_n32_NK5boost16exception_detail10clone_implINS0_14bad_exception_EE7rethrowEv
0x10000BD10	0x00000050	[  1] FDE for: __ZNK5boost16exception_detail10clone_implINS0_10bad_alloc_EE5cloneEv
0x10000BD60	0x00000028	[  1] FDE for: __ZTv0_n24_NK5boost16exception_detail10clone_implINS0_10bad_alloc_EE5cloneEv
0x10000BD88	0x00000040	[  1] FDE for: __ZNK5boost16exception_detail10clone_implINS0_10bad_alloc_EE7rethrowEv
0x10000BDC8	0x00000028	[  1] FDE for: __ZTv0_n32_NK5boost16exception_detail10clone_implINS0_10bad_alloc_EE7rethrowEv
0x10000BDF0	0x00000050	[  1] FDE for: __ZNK5boost16exception_detail10clone_implINS0_19error_info_injectorINS_6system12system_errorEEEE5cloneEv
0x10000BE40	0x00000028	[  1] FDE for: __ZTv0_n24_NK5boost16exception_detail10clone_implINS0_19error_info_injectorINS_6system12system_errorEEEE5cloneEv
0x10000BE68	0x00000040	[  1] FDE for: __ZNK5boost16exception_detail10clone_implINS0_19error_info_injectorINS_6system12system_errorEEEE7rethrowEv
0x10000BEA8	0x00000028	[  1] FDE for: __ZTv0_n32_NK5boost16exception_detail10clone_implINS0_19error_info_injectorINS_6system12system_errorEEEE7rethrowEv
0x10000BED0	0x00000040	[  1] FDE for: __ZN5boost16exception_detail10clone_implINS0_14bad_exception_EEC1ERKS3_NS3_9clone_tagE
0x10000BF10	0x00000040	[  1] FDE for: __ZN5boost16exception_detail10clone_implINS0_10bad_alloc_EEC1ERKS3_NS3_9clone_tagE
0x10000BF50	0x00000040	[  1] FDE for: __ZN5boost16exception_detail10clone_implINS0_19error_info_injectorINS_6system12system_errorEEEEC1ERKS6_NS6_9clone_tagE
0x10000BF90	0x00000040	[  1] FDE for: __GLOBAL__sub_I_sample.cpp
0x10000C000	0x00000008	[  0] non-lazy-pointer-to-local: __ZGVN5boost16exception_detail37exception_ptr_static_exception_objectINS0_10bad_alloc_EE1eE
0x10000C008	0x00000008	[  0] non-lazy-pointer-to-local: __ZGVN5boost16exception_detail37exception_ptr_static_exception_objectINS0_14bad_exception_EE1eE
0x10000C010	0x00000008	[  0] non-lazy-pointer-to-local: __ZGVN5boost4asio6detail10call_stackINS1_14strand_service11strand_implEhE4top_E
0x10000C018	0x00000008	[  0] non-lazy-pointer-to-local: __ZGVN5boost4asio6detail10call_stackINS1_15task_io_serviceENS1_27task_io_service_thread_infoEE4top_E
0x10000C020	0x00000008	[  0] non-lazy-pointer-to-local: __ZGVN5boost4asio6detail12service_baseINS0_21stream_socket_serviceINS0_2ip3tcpEEEE2idE
0x10000C028	0x00000008	[  0] non-lazy-pointer-to-local: __ZGVN5boost4asio6detail12service_baseINS1_14kqueue_reactorEE2idE
0x10000C030	0x00000008	[  0] non-lazy-pointer-to-local: __ZGVN5boost4asio6detail12service_baseINS1_14strand_serviceEE2idE
0x10000C038	0x00000008	[  0] non-lazy-pointer-to-local: __ZGVN5boost4asio6detail12service_baseINS1_15task_io_serviceEE2idE
0x10000C040	0x00000008	[  0] non-lazy-pointer-to-local: __ZGVZN5boost16exception_detail27get_static_exception_objectINS0_10bad_alloc_EEENS_13exception_ptrEvE2ep
0x10000C048	0x00000008	[  0] non-lazy-pointer-to-local: __ZGVZN5boost16exception_detail27get_static_exception_objectINS0_14bad_exception_EEENS_13exception_ptrEvE2ep
0x10000C050	0x00000008	[  0] non-lazy-pointer-to-local: __ZGVZN5boost4asio5error17get_misc_categoryEvE8instance
0x10000C058	0x00000008	[  0] non-lazy-pointer-to-local: __ZGVZN5boost4asio5error18get_netdb_categoryEvE8instance
0x10000C060	0x00000008	[  0] non-lazy-pointer-to-local: __ZGVZN5boost4asio5error21get_addrinfo_categoryEvE8instance
0x10000C068	0x00000008	[  0] non-lazy-pointer-to-local: __ZN5boost13exception_ptrD1Ev
0x10000C070	0x00000008	[  0] non-lazy-pointer-to-local: __ZN5boost16exception_detail10bad_alloc_D0Ev
0x10000C078	0x00000008	[  0] non-lazy-pointer-to-local: __ZN5boost16exception_detail10bad_alloc_D1Ev
0x10000C080	0x00000008	[  0] non-lazy-pointer-to-local: __ZN5boost16exception_detail10clone_implINS0_10bad_alloc_EED0Ev
0x10000C088	0x00000008	[  0] non-lazy-pointer-to-local: __ZN5boost16exception_detail10clone_implINS0_10bad_alloc_EED1Ev
0x10000C090	0x00000008	[  0] non-lazy-pointer-to-local: __ZN5boost16exception_detail10clone_implINS0_14bad_exception_EED0Ev
0x10000C098	0x00000008	[  0] non-lazy-pointer-to-local: __ZN5boost16exception_detail10clone_implINS0_14bad_exception_EED1Ev
0x10000C0A0	0x00000008	[  0] non-lazy-pointer-to-local: __ZN5boost16exception_detail10clone_implINS0_19error_info_injectorINS_6system12system_errorEEEED0Ev
0x10000C0A8	0x00000008	[  0] non-lazy-pointer-to-local: __ZN5boost16exception_detail10clone_implINS0_19error_info_injectorINS_6system12system_errorEEEED1Ev
0x10000C0B0	0x00000008	[  0] non-lazy-pointer-to-local: __ZN5boost16exception_detail14bad_exception_D0Ev
0x10000C0B8	0x00000008	[  0] non-lazy-pointer-to-local: __ZN5boost16exception_detail14bad_exception_D1Ev
0x10000C0C0	0x00000008	[  0] non-lazy-pointer-to-local: __ZN5boost16exception_detail19error_info_injectorINS_6system12system_errorEED0Ev
0x10000C0C8	0x00000008	[  0] non-lazy-pointer-to-local: __ZN5boost16exception_detail19error_info_injectorINS_6system12system_errorEED1Ev
0x10000C0D0	0x00000008	[  0] non-lazy-pointer-to-local: __ZN5boost16exception_detail37exception_ptr_static_exception_objectINS0_10bad_alloc_EE1eE
0x10000C0D8	0x00000008	[  0] non-lazy-pointer-to-local: __ZN5boost16exception_detail37exception_ptr_static_exception_objectINS0_14bad_exception_EE1eE
0x10000C0E0	0x00000008	[  0] non-lazy-pointer-to-local: __ZN5boost4asio5error6detail13misc_categoryD1Ev
0x10000C0E8	0x00000008	[  0] non-lazy-pointer-to-local: __ZN5boost4asio5error6detail14netdb_categoryD1Ev
0x10000C0F0	0x00000008	[  0] non-lazy-pointer-to-local: __ZN5boost4asio5error6detail17addrinfo_categoryD1Ev
0x10000C0F8	0x00000008	[  0] non-lazy-pointer-to-local: __ZN5boost4asio6detail10call_stackINS1_14strand_service11strand_implEhE4top_E
0x10000C100	0x00000008	[  0] non-lazy-pointer-to-local: __ZN5boost4asio6detail10call_stackINS1_15task_io_serviceENS1_27task_io_service_thread_infoEE4top_E
0x10000C108	0x00000008	[  0] non-lazy-pointer-to-local: __ZN5boost4asio6detail10service_idINS0_21stream_socket_serviceINS0_2ip3tcpEEEED1Ev
0x10000C110	0x00000008	[  0] non-lazy-pointer-to-local: __ZN5boost4asio6detail10service_idINS1_14kqueue_reactorEED1Ev
0x10000C118	0x00000008	[  0] non-lazy-pointer-to-local: __ZN5boost4asio6detail10service_idINS1_14strand_serviceEED1Ev
0x10000C120	0x00000008	[  0] non-lazy-pointer-to-local: __ZN5boost4asio6detail10service_idINS1_15task_io_serviceEED1Ev
0x10000C128	0x00000008	[  0] non-lazy-pointer-to-local: __ZN5boost4asio6detail12service_baseINS0_21stream_socket_serviceINS0_2ip3tcpEEEE2idE
0x10000C130	0x00000008	[  0] non-lazy-pointer-to-local: __ZN5boost4asio6detail12service_baseINS1_14kqueue_reactorEE2idE
0x10000C138	0x00000008	[  0] non-lazy-pointer-to-local: __ZN5boost4asio6detail12service_baseINS1_14strand_serviceEE2idE
0x10000C140	0x00000008	[  0] non-lazy-pointer-to-local: __ZN5boost4asio6detail12service_baseINS1_15task_io_serviceEE2idE
0x10000C148	0x00000008	[  0] non-lazy-pointer-to-local: __ZN5boost4asio6detail7tss_ptrINS1_10call_stackINS1_14strand_service11strand_implEhE7contextEED1Ev
0x10000C150	0x00000008	[  0] non-lazy-pointer-to-local: __ZN5boost4asio6detail7tss_ptrINS1_10call_stackINS1_15task_io_serviceENS1_27task_io_service_thread_infoEE7contextEED1Ev
0x10000C158	0x00000008	[  0] non-lazy-pointer-to-local: __ZN5boost6system10error_code21unspecified_bool_trueEv
0x10000C160	0x00000008	[  0] non-lazy-pointer-to-local: __ZNK5boost16exception_detail10clone_implINS0_10bad_alloc_EE5cloneEv
0x10000C168	0x00000008	[  0] non-lazy-pointer-to-local: __ZNK5boost16exception_detail10clone_implINS0_10bad_alloc_EE7rethrowEv
0x10000C170	0x00000008	[  0] non-lazy-pointer-to-local: __ZNK5boost16exception_detail10clone_implINS0_14bad_exception_EE5cloneEv
0x10000C178	0x00000008	[  0] non-lazy-pointer-to-local: __ZNK5boost16exception_detail10clone_implINS0_14bad_exception_EE7rethrowEv
0x10000C180	0x00000008	[  0] non-lazy-pointer-to-local: __ZNK5boost16exception_detail10clone_implINS0_19error_info_injectorINS_6system12system_errorEEEE5cloneEv
0x10000C188	0x00000008	[  0] non-lazy-pointer-to-local: __ZNK5boost16exception_detail10clone_implINS0_19error_info_injectorINS_6system12system_errorEEEE7rethrowEv
0x10000C190	0x00000008	[  0] non-lazy-pointer-to-local: __ZNSsD1Ev
0x10000C198	0x00000008	[  0] non-lazy-pointer-to-local: __ZNSt6vectorIiSaIiEED1Ev
0x10000C1A0	0x00000008	[  0] non-lazy-pointer-to-local: __ZNSt8ios_base4InitD1Ev
0x10000C1A8	0x00000008	[  0] non-lazy-pointer-to-local: __ZSt4cerr
0x10000C1B0	0x00000008	[  0] non-lazy-pointer-to-local: __ZSt4endlIcSt11char_traitsIcEERSt13basic_ostreamIT_T0_ES6_
0x10000C1B8	0x00000008	[  0] non-lazy-pointer-to-local: __ZTIN5boost16exception_detail10clone_implINS0_10bad_alloc_EEE
0x10000C1C0	0x00000008	[  0] non-lazy-pointer-to-local: __ZTIN5boost16exception_detail10clone_implINS0_14bad_exception_EEE
0x10000C1C8	0x00000008	[  0] non-lazy-pointer-to-local: __ZTIN5boost16exception_detail10clone_implINS0_19error_info_injectorINS_6system12system_errorEEEEE
0x10000C1D0	0x00000008	[  0] non-lazy-pointer-to-local: __ZTVN5boost16exception_detail10bad_alloc_E
0x10000C1D8	0x00000008	[  0] non-lazy-pointer-to-local: __ZTVN5boost16exception_detail10clone_baseE
0x10000C1E0	0x00000008	[  0] non-lazy-pointer-to-local: __ZTVN5boost16exception_detail10clone_implINS0_10bad_alloc_EEE
0x10000C1E8	0x00000008	[  0] non-lazy-pointer-to-local: __ZTVN5boost16exception_detail10clone_implINS0_14bad_exception_EEE
0x10000C1F0	0x00000008	[  0] non-lazy-pointer-to-local: __ZTVN5boost16exception_detail10clone_implINS0_19error_info_injectorINS_6system12system_errorEEEEE
0x10000C1F8	0x00000008	[  0] non-lazy-pointer-to-local: __ZTVN5boost16exception_detail14bad_exception_E
0x10000C200	0x00000008	[  0] non-lazy-pointer-to-local: __ZTVN5boost16exception_detail19error_info_injectorINS_6system12system_errorEEE
0x10000C208	0x00000008	[  0] non-lazy-pointer-to-local: __ZTVN5boost4asio5error6detail13misc_categoryE
0x10000C210	0x00000008	[  0] non-lazy-pointer-to-local: __ZTVN5boost4asio5error6detail14netdb_categoryE
0x10000C218	0x00000008	[  0] non-lazy-pointer-to-local: __ZTVN5boost4asio5error6detail17addrinfo_categoryE
0x10000C220	0x00000008	[  0] non-lazy-pointer-to-local: __ZTVN5boost6detail15sp_counted_baseE
0x10000C228	0x00000008	[  0] non-lazy-pointer-to-local: __ZTVN5boost6detail17sp_counted_impl_pIN8socketio23socketio_client_handlerEEE
0x10000C230	0x00000008	[  0] non-lazy-pointer-to-local: __ZTVN5boost6detail17sp_counted_impl_pINS_16exception_detail10clone_implINS2_10bad_alloc_EEEEE
0x10000C238	0x00000008	[  0] non-lazy-pointer-to-local: __ZTVN5boost6detail17sp_counted_impl_pINS_16exception_detail10clone_implINS2_14bad_exception_EEEEE
0x10000C240	0x00000008	[  0] non-lazy-pointer-to-local: __ZTVN5boost6system12system_errorE
0x10000C248	0x00000008	[  0] non-lazy-pointer-to-local: __ZTVN5boost6system14error_categoryE
0x10000C250	0x00000008	[  0] non-lazy-pointer-to-local: __ZTVN5boost9exceptionE
0x10000C258	0x00000008	[  0] non-lazy-pointer-to-local: __ZTVSt13bad_exception
0x10000C260	0x00000008	[  0] non-lazy-pointer-to-local: __ZTVSt13runtime_error
0x10000C268	0x00000008	[  0] non-lazy-pointer-to-local: __ZTVSt9bad_alloc
0x10000C270	0x00000008	[  0] non-lazy-pointer-to-local: __ZTVSt9exception
0x10000C278	0x00000008	[  0] non-lazy-pointer-to-local: __ZZN5boost16exception_detail27get_static_exception_objectINS0_10bad_alloc_EEENS_13exception_ptrEvE2ep
0x10000C280	0x00000008	[  0] non-lazy-pointer-to-local: __ZZN5boost16exception_detail27get_static_exception_objectINS0_14bad_exception_EEENS_13exception_ptrEvE2ep
0x10000C288	0x00000008	[  0] non-lazy-pointer-to-local: __ZZN5boost4asio5error17get_misc_categoryEvE8instance
0x10000C290	0x00000008	[  0] non-lazy-pointer-to-local: __ZZN5boost4asio5error18get_netdb_categoryEvE8instance
0x10000C298	0x00000008	[  0] non-lazy-pointer-to-local: __ZZN5boost4asio5error21get_addrinfo_categoryEvE8instance
0x10000C2A0	0x00000008	[  0] non-lazy-pointer-to-local: ___gxx_personality_v0
0x10000C2A8	0x00000008	[  0] non-lazy-pointer-to-local: dyld_stub_binder
0x10000C2B0	0x00000008	[  0] non-lazy-pointer
0x10000C2B8	0x00000008	[  0] __ZN8socketio23socketio_client_handlerC1Ev
0x10000C2C0	0x00000008	[  0] __ZN8socketio23socketio_client_handlerD1Ev
0x10000C2C8	0x00000008	[  1] __ZN5boost10error_infoINS_11throw_file_EPKcEC1ES3_
0x10000C2D0	0x00000008	[  1] __ZN5boost10error_infoINS_11throw_line_EiEC1Ei
0x10000C2D8	0x00000008	[  1] __ZN5boost10error_infoINS_15throw_function_EPKcEC1ES3_
0x10000C2E0	0x00000008	[  1] __ZN5boost10shared_ptrIKNS_16exception_detail10clone_baseEEC1ERKS4_
0x10000C2E8	0x00000008	[  1] __ZN5boost10shared_ptrIKNS_16exception_detail10clone_baseEEC1INS1_10clone_implINS1_10bad_alloc_EEEEEPT_
0x10000C2F0	0x00000008	[  1] __ZN5boost10shared_ptrIKNS_16exception_detail10clone_baseEEC1INS1_10clone_implINS1_14bad_exception_EEEEEPT_
0x10000C2F8	0x00000008	[  1] __ZN5boost10shared_ptrIKNS_16exception_detail10clone_baseEED1Ev
0x10000C300	0x00000008	[  1] __ZN5boost10shared_ptrIN8socketio23socketio_client_handlerEEC1IS2_EEPT_
0x10000C308	0x00000008	[  1] __ZN5boost10shared_ptrIN8socketio23socketio_client_handlerEED1Ev
0x10000C310	0x00000008	[  1] __ZN5boost13exception_ptrC1ERKNS_10shared_ptrIKNS_16exception_detail10clone_baseEEE
0x10000C318	0x00000008	[  1] __ZN5boost13exception_ptrC1ERKS0_
0x10000C320	0x00000008	[  1] __ZN5boost14checked_deleteIN8socketio23socketio_client_handlerEEEvPT_
0x10000C328	0x00000008	[  1] __ZN5boost14checked_deleteINS_16exception_detail10clone_implINS1_10bad_alloc_EEEEEvPT_
0x10000C330	0x00000008	[  1] __ZN5boost14checked_deleteINS_16exception_detail10clone_implINS1_14bad_exception_EEEEEvPT_
0x10000C338	0x00000008	[  1] __ZN5boost15throw_exceptionINS_6system12system_errorEEEvRKT_
0x10000C340	0x00000008	[  1] __ZN5boost16exception_detail10bad_alloc_C1Ev
0x10000C348	0x00000008	[  1] __ZN5boost16exception_detail10bad_alloc_C2ERKS1_
0x10000C350	0x00000008	[  1] __ZN5boost16exception_detail10bad_alloc_D1Ev
0x10000C358	0x00000008	[  1] __ZN5boost16exception_detail10bad_alloc_D2Ev
0x10000C360	0x00000008	[  1] __ZN5boost16exception_detail10clone_baseC2ERKS1_
0x10000C368	0x00000008	[  1] __ZN5boost16exception_detail10clone_baseC2Ev
0x10000C370	0x00000008	[  1] __ZN5boost16exception_detail10clone_baseD2Ev
0x10000C378	0x00000008	[  1] __ZN5boost16exception_detail10clone_implINS0_10bad_alloc_EEC1ERKS2_
0x10000C380	0x00000008	[  1] __ZN5boost16exception_detail10clone_implINS0_10bad_alloc_EEC1ERKS3_
0x10000C388	0x00000008	[  1] __ZN5boost16exception_detail10clone_implINS0_10bad_alloc_EEC1ERKS3_NS3_9clone_tagE
0x10000C390	0x00000008	[  1] __ZN5boost16exception_detail10clone_implINS0_10bad_alloc_EED1Ev
0x10000C398	0x00000008	[  1] __ZN5boost16exception_detail10clone_implINS0_14bad_exception_EEC1ERKS2_
0x10000C3A0	0x00000008	[  1] __ZN5boost16exception_detail10clone_implINS0_14bad_exception_EEC1ERKS3_
0x10000C3A8	0x00000008	[  1] __ZN5boost16exception_detail10clone_implINS0_14bad_exception_EEC1ERKS3_NS3_9clone_tagE
0x10000C3B0	0x00000008	[  1] __ZN5boost16exception_detail10clone_implINS0_14bad_exception_EED1Ev
0x10000C3B8	0x00000008	[  1] __ZN5boost16exception_detail10clone_implINS0_19error_info_injectorINS_6system12system_errorEEEEC1ERKS5_
0x10000C3C0	0x00000008	[  1] __ZN5boost16exception_detail10clone_implINS0_19error_info_injectorINS_6system12system_errorEEEEC1ERKS6_
0x10000C3C8	0x00000008	[  1] __ZN5boost16exception_detail10clone_implINS0_19error_info_injectorINS_6system12system_errorEEEEC1ERKS6_NS6_9clone_tagE
0x10000C3D0	0x00000008	[  1] __ZN5boost16exception_detail10clone_implINS0_19error_info_injectorINS_6system12system_errorEEEED1Ev
0x10000C3D8	0x00000008	[  1] __ZN5boost16exception_detail12refcount_ptrINS0_20error_info_containerEE5adoptEPS2_
0x10000C3E0	0x00000008	[  1] __ZN5boost16exception_detail12refcount_ptrINS0_20error_info_containerEE7add_refEv
0x10000C3E8	0x00000008	[  1] __ZN5boost16exception_detail12refcount_ptrINS0_20error_info_containerEE7releaseEv
0x10000C3F0	0x00000008	[  1] __ZN5boost16exception_detail12refcount_ptrINS0_20error_info_containerEEC1ERKS3_
0x10000C3F8	0x00000008	[  1] __ZN5boost16exception_detail12refcount_ptrINS0_20error_info_containerEEC1Ev
0x10000C400	0x00000008	[  1] __ZN5boost16exception_detail12refcount_ptrINS0_20error_info_containerEED1Ev
0x10000C408	0x00000008	[  1] __ZN5boost16exception_detail12refcount_ptrINS0_20error_info_containerEEaSERKS3_
0x10000C410	0x00000008	[  1] __ZN5boost16exception_detail14bad_exception_C1Ev
0x10000C418	0x00000008	[  1] __ZN5boost16exception_detail14bad_exception_C2ERKS1_
0x10000C420	0x00000008	[  1] __ZN5boost16exception_detail14bad_exception_D1Ev
0x10000C428	0x00000008	[  1] __ZN5boost16exception_detail14bad_exception_D2Ev
0x10000C430	0x00000008	[  1] __ZN5boost16exception_detail19error_info_injectorINS_6system12system_errorEEC1ERKS3_
0x10000C438	0x00000008	[  1] __ZN5boost16exception_detail19error_info_injectorINS_6system12system_errorEEC2ERKS4_
0x10000C440	0x00000008	[  1] __ZN5boost16exception_detail19error_info_injectorINS_6system12system_errorEED1Ev
0x10000C448	0x00000008	[  1] __ZN5boost16exception_detail19error_info_injectorINS_6system12system_errorEED2Ev
0x10000C450	0x00000008	[  1] __ZN5boost16exception_detail20copy_boost_exceptionEPNS_9exceptionEPKS1_
0x10000C458	0x00000008	[  1] __ZN5boost16exception_detail27get_static_exception_objectINS0_10bad_alloc_EEENS_13exception_ptrEv
0x10000C460	0x00000008	[  1] __ZN5boost16exception_detail27get_static_exception_objectINS0_14bad_exception_EEENS_13exception_ptrEv
0x10000C468	0x00000008	[  1] __ZN5boost16exception_detail8set_infoINS0_10clone_implINS0_10bad_alloc_EEEEERKT_S7_RKNS_10error_infoINS_11throw_file_EPKcEE
0x10000C470	0x00000008	[  1] __ZN5boost16exception_detail8set_infoINS0_10clone_implINS0_10bad_alloc_EEEEERKT_S7_RKNS_10error_infoINS_11throw_line_EiEE
0x10000C478	0x00000008	[  1] __ZN5boost16exception_detail8set_infoINS0_10clone_implINS0_10bad_alloc_EEEEERKT_S7_RKNS_10error_infoINS_15throw_function_EPKcEE
0x10000C480	0x00000008	[  1] __ZN5boost16exception_detail8set_infoINS0_10clone_implINS0_14bad_exception_EEEEERKT_S7_RKNS_10error_infoINS_11throw_file_EPKcEE
0x10000C488	0x00000008	[  1] __ZN5boost16exception_detail8set_infoINS0_10clone_implINS0_14bad_exception_EEEEERKT_S7_RKNS_10error_infoINS_11throw_line_EiEE
0x10000C490	0x00000008	[  1] __ZN5boost16exception_detail8set_infoINS0_10clone_implINS0_14bad_exception_EEEEERKT_S7_RKNS_10error_infoINS_15throw_function_EPKcEE
0x10000C498	0x00000008	[  1] __ZN5boost17enable_error_infoINS_6system12system_errorEEENS_16exception_detail29enable_error_info_return_typeIT_E4typeERKS5_
0x10000C4A0	0x00000008	[  1] __ZN5boost24enable_current_exceptionINS_16exception_detail19error_info_injectorINS_6system12system_errorEEEEENS1_10clone_implIT_EERKS7_
0x10000C4A8	0x00000008	[  1] __ZN5boost36throw_exception_assert_compatibilityERKSt9exception
0x10000C4B0	0x00000008	[  1] __ZN5boost3argILi1EEC1Ev
0x10000C4B8	0x00000008	[  1] __ZN5boost3argILi2EEC1Ev
0x10000C4C0	0x00000008	[  1] __ZN5boost3argILi3EEC1Ev
0x10000C4C8	0x00000008	[  1] __ZN5boost3argILi4EEC1Ev
0x10000C4D0	0x00000008	[  1] __ZN5boost3argILi5EEC1Ev
0x10000C4D8	0x00000008	[  1] __ZN5boost3argILi6EEC1Ev
0x10000C4E0	0x00000008	[  1] __ZN5boost3argILi7EEC1Ev
0x10000C4E8	0x00000008	[  1] __ZN5boost3argILi8EEC1Ev
0x10000C4F0	0x00000008	[  1] __ZN5boost3argILi9EEC1Ev
0x10000C4F8	0x00000008	[  1] __ZN5boost4asio10io_service2idC2Ev
0x10000C500	0x00000008	[  1] __ZN5boost4asio10io_service2idD2Ev
0x10000C508	0x00000008	[  1] __ZN5boost4asio5error17get_misc_categoryEv
0x10000C510	0x00000008	[  1] __ZN5boost4asio5error18get_netdb_categoryEv
0x10000C518	0x00000008	[  1] __ZN5boost4asio5error19get_system_categoryEv
0x10000C520	0x00000008	[  1] __ZN5boost4asio5error21get_addrinfo_categoryEv
0x10000C528	0x00000008	[  1] __ZN5boost4asio5error6detail13misc_categoryD1Ev
0x10000C530	0x00000008	[  1] __ZN5boost4asio5error6detail14netdb_categoryD1Ev
0x10000C538	0x00000008	[  1] __ZN5boost4asio5error6detail17addrinfo_categoryD1Ev
0x10000C540	0x00000008	[  1] __ZN5boost4asio6detail10service_idINS0_21stream_socket_serviceINS0_2ip3tcpEEEEC1Ev
0x10000C548	0x00000008	[  1] __ZN5boost4asio6detail10service_idINS1_14kqueue_reactorEEC1Ev
0x10000C550	0x00000008	[  1] __ZN5boost4asio6detail10service_idINS1_14strand_serviceEEC1Ev
0x10000C558	0x00000008	[  1] __ZN5boost4asio6detail10service_idINS1_15task_io_serviceEEC1Ev
0x10000C560	0x00000008	[  1] __ZN5boost4asio6detail11noncopyableC2Ev
0x10000C568	0x00000008	[  1] __ZN5boost4asio6detail11noncopyableD2Ev
0x10000C570	0x00000008	[  1] __ZN5boost4asio6detail11throw_errorERKNS_6system10error_codeEPKc
0x10000C578	0x00000008	[  1] __ZN5boost4asio6detail13posix_tss_ptrINS1_10call_stackINS1_14strand_service11strand_implEhE7contextEEC2Ev
0x10000C580	0x00000008	[  1] __ZN5boost4asio6detail13posix_tss_ptrINS1_10call_stackINS1_14strand_service11strand_implEhE7contextEED2Ev
0x10000C588	0x00000008	[  1] __ZN5boost4asio6detail13posix_tss_ptrINS1_10call_stackINS1_15task_io_serviceENS1_27task_io_service_thread_infoEE7contextEEC2Ev
0x10000C590	0x00000008	[  1] __ZN5boost4asio6detail13posix_tss_ptrINS1_10call_stackINS1_15task_io_serviceENS1_27task_io_service_thread_infoEE7contextEED2Ev
0x10000C598	0x00000008	[  1] __ZN5boost4asio6detail14do_throw_errorERKNS_6system10error_codeEPKc
0x10000C5A0	0x00000008	[  1] __ZN5boost4asio6detail20posix_tss_ptr_createERm
0x10000C5A8	0x00000008	[  1] __ZN5boost4asio6detail7tss_ptrINS1_10call_stackINS1_14strand_service11strand_implEhE7contextEEC1Ev
0x10000C5B0	0x00000008	[  1] __ZN5boost4asio6detail7tss_ptrINS1_10call_stackINS1_15task_io_serviceENS1_27task_io_service_thread_infoEE7contextEEC1Ev
0x10000C5B8	0x00000008	[  1] __ZN5boost6detail12shared_count4swapERS1_
0x10000C5C0	0x00000008	[  1] __ZN5boost6detail12shared_countC1ERKS1_
0x10000C5C8	0x00000008	[  1] __ZN5boost6detail12shared_countC1Ev
0x10000C5D0	0x00000008	[  1] __ZN5boost6detail12shared_countC1IN8socketio23socketio_client_handlerEEEPT_
0x10000C5D8	0x00000008	[  1] __ZN5boost6detail12shared_countC1INS_16exception_detail10clone_implINS3_10bad_alloc_EEEEEPT_
0x10000C5E0	0x00000008	[  1] __ZN5boost6detail12shared_countC1INS_16exception_detail10clone_implINS3_14bad_exception_EEEEEPT_
0x10000C5E8	0x00000008	[  1] __ZN5boost6detail12shared_countD1Ev
0x10000C5F0	0x00000008	[  1] __ZN5boost6detail15sp_counted_base12add_ref_copyEv
0x10000C5F8	0x00000008	[  1] __ZN5boost6detail15sp_counted_base12weak_releaseEv
0x10000C600	0x00000008	[  1] __ZN5boost6detail15sp_counted_base7releaseEv
0x10000C608	0x00000008	[  1] __ZN5boost6detail15sp_counted_baseC2Ev
0x10000C610	0x00000008	[  1] __ZN5boost6detail15sp_counted_baseD2Ev
0x10000C618	0x00000008	[  1] __ZN5boost6detail16atomic_incrementEPi
0x10000C620	0x00000008	[  1] __ZN5boost6detail17sp_counted_impl_pIN8socketio23socketio_client_handlerEEC1EPS3_
0x10000C628	0x00000008	[  1] __ZN5boost6detail17sp_counted_impl_pIN8socketio23socketio_client_handlerEED1Ev
0x10000C630	0x00000008	[  1] __ZN5boost6detail17sp_counted_impl_pINS_16exception_detail10clone_implINS2_10bad_alloc_EEEEC1EPS5_
0x10000C638	0x00000008	[  1] __ZN5boost6detail17sp_counted_impl_pINS_16exception_detail10clone_implINS2_10bad_alloc_EEEED1Ev
0x10000C640	0x00000008	[  1] __ZN5boost6detail17sp_counted_impl_pINS_16exception_detail10clone_implINS2_14bad_exception_EEEEC1EPS5_
0x10000C648	0x00000008	[  1] __ZN5boost6detail17sp_counted_impl_pINS_16exception_detail10clone_implINS2_14bad_exception_EEEED1Ev
0x10000C650	0x00000008	[  1] __ZN5boost6detail20sp_pointer_constructIKNS_16exception_detail10clone_baseENS2_10clone_implINS2_10bad_alloc_EEEEEvPNS_10shared_ptrIT_EEPT0_RNS0_12shared_countE
0x10000C658	0x00000008	[  1] __ZN5boost6detail20sp_pointer_constructIKNS_16exception_detail10clone_baseENS2_10clone_implINS2_14bad_exception_EEEEEvPNS_10shared_ptrIT_EEPT0_RNS0_12shared_countE
0x10000C660	0x00000008	[  1] __ZN5boost6detail20sp_pointer_constructIN8socketio23socketio_client_handlerES3_EEvPNS_10shared_ptrIT_EEPT0_RNS0_12shared_countE
0x10000C668	0x00000008	[  1] __ZN5boost6detail23atomic_exchange_and_addEPii
0x10000C670	0x00000008	[  1] __ZN5boost6detail26sp_enable_shared_from_thisEz
0x10000C678	0x00000008	[  1] __ZN5boost6system10error_codeC1EiRKNS0_14error_categoryE
0x10000C680	0x00000008	[  1] __ZN5boost6system12system_errorC1ENS0_10error_codeEPKc
0x10000C688	0x00000008	[  1] __ZN5boost6system12system_errorC2ERKS1_
0x10000C690	0x00000008	[  1] __ZN5boost6system12system_errorD1Ev
0x10000C698	0x00000008	[  1] __ZN5boost6system12system_errorD2Ev
0x10000C6A0	0x00000008	[  1] __ZN5boost6system14error_categoryD2Ev
0x10000C6A8	0x00000008	[  1] __ZN5boost6system15error_conditionC1EiRKNS0_14error_categoryE
0x10000C6B0	0x00000008	[  1] __ZN5boost6systemeqERKNS0_15error_conditionES3_
0x10000C6B8	0x00000008	[  1] __ZN5boost9exceptionC2ERKS0_
0x10000C6C0	0x00000008	[  1] __ZN5boost9exceptionC2Ev
0x10000C6C8	0x00000008	[  1] __ZN5boost9exceptionD2Ev
0x10000C6D0	0x00000008	[  1] __ZN5boostlsINS_16exception_detail10clone_implINS1_10bad_alloc_EEENS_11throw_file_EPKcEENS_9enable_ifINS1_23derives_boost_exceptionIT_EERKSA_E4typeESD_RKNS_10error_infoIT0_T1_EE
0x10000C6D8	0x00000008	[  1] __ZN5boostlsINS_16exception_detail10clone_implINS1_10bad_alloc_EEENS_11throw_line_EiEENS_9enable_ifINS1_23derives_boost_exceptionIT_EERKS8_E4typeESB_RKNS_10error_infoIT0_T1_EE
0x10000C6E0	0x00000008	[  1] __ZN5boostlsINS_16exception_detail10clone_implINS1_10bad_alloc_EEENS_15throw_function_EPKcEENS_9enable_ifINS1_23derives_boost_exceptionIT_EERKSA_E4typeESD_RKNS_10error_infoIT0_T1_EE
0x10000C6E8	0x00000008	[  1] __ZN5boostlsINS_16exception_detail10clone_implINS1_14bad_exception_EEENS_11throw_file_EPKcEENS_9enable_ifINS1_23derives_boost_exceptionIT_EERKSA_E4typeESD_RKNS_10error_infoIT0_T1_EE
0x10000C6F0	0x00000008	[  1] __ZN5boostlsINS_16exception_detail10clone_implINS1_14bad_exception_EEENS_11throw_line_EiEENS_9enable_ifINS1_23derives_boost_exceptionIT_EERKS8_E4typeESB_RKNS_10error_infoIT0_T1_EE
0x10000C6F8	0x00000008	[  1] __ZN5boostlsINS_16exception_detail10clone_implINS1_14bad_exception_EEENS_15throw_function_EPKcEENS_9enable_ifINS1_23derives_boost_exceptionIT_EERKSA_E4typeESD_RKNS_10error_infoIT0_T1_EE
0x10000C700	0x00000008	[  1] __ZN9__gnu_cxx13new_allocatorIiE10deallocateEPim
0x10000C708	0x00000008	[  1] __ZN9__gnu_cxx13new_allocatorIiE8allocateEmPKv
0x10000C710	0x00000008	[  1] __ZN9__gnu_cxx13new_allocatorIiEC2ERKS1_
0x10000C718	0x00000008	[  1] __ZN9__gnu_cxx13new_allocatorIiEC2Ev
0x10000C720	0x00000008	[  1] __ZN9__gnu_cxx13new_allocatorIiED2Ev
0x10000C728	0x00000008	[  1] __ZNK5boost16exception_detail12refcount_ptrINS0_20error_info_containerEE3getEv
0x10000C730	0x00000008	[  1] __ZNK5boost6system10error_code5valueEv
0x10000C738	0x00000008	[  1] __ZNK5boost6system10error_code7messageEv
0x10000C740	0x00000008	[  1] __ZNK5boost6system10error_code8categoryEv
0x10000C748	0x00000008	[  1] __ZNK5boost6system10error_codecvPFvvEEv
0x10000C750	0x00000008	[  1] __ZNK5boost6system14error_categoryeqERKS1_
0x10000C758	0x00000008	[  1] __ZNK9__gnu_cxx13new_allocatorIiE8max_sizeEv
0x10000C760	0x00000008	[  1] __ZNKSt16initializer_listIiE3endEv
0x10000C768	0x00000008	[  1] __ZNKSt16initializer_listIiE4sizeEv
0x10000C770	0x00000008	[  1] __ZNKSt16initializer_listIiE5beginEv
0x10000C778	0x00000008	[  1] __ZNSaIiEC1Ev
0x10000C780	0x00000008	[  1] __ZNSaIiEC2ERKS_
0x10000C788	0x00000008	[  1] __ZNSaIiED1Ev
0x10000C790	0x00000008	[  1] __ZNSaIiED2Ev
0x10000C798	0x00000008	[  1] __ZNSt12_Destroy_auxILb1EE9__destroyIPiEEvT_S3_
0x10000C7A0	0x00000008	[  1] __ZNSt12_Vector_baseIiSaIiEE11_M_allocateEm
0x10000C7A8	0x00000008	[  1] __ZNSt12_Vector_baseIiSaIiEE12_Vector_implC1ERKS0_
0x10000C7B0	0x00000008	[  1] __ZNSt12_Vector_baseIiSaIiEE12_Vector_implD1Ev
0x10000C7B8	0x00000008	[  1] __ZNSt12_Vector_baseIiSaIiEE13_M_deallocateEPim
0x10000C7C0	0x00000008	[  1] __ZNSt12_Vector_baseIiSaIiEE19_M_get_Tp_allocatorEv
0x10000C7C8	0x00000008	[  1] __ZNSt12_Vector_baseIiSaIiEEC2ERKS0_
0x10000C7D0	0x00000008	[  1] __ZNSt12_Vector_baseIiSaIiEED2Ev
0x10000C7D8	0x00000008	[  1] __ZNSt13bad_exceptionC2ERKS_
0x10000C7E0	0x00000008	[  1] __ZNSt13bad_exceptionC2Ev
0x10000C7E8	0x00000008	[  1] __ZNSt13runtime_errorC2ERKS_
0x10000C7F0	0x00000008	[  1] __ZNSt16allocator_traitsISaIiEE10deallocateERS0_Pim
0x10000C7F8	0x00000008	[  1] __ZNSt16allocator_traitsISaIiEE8allocateERS0_m
0x10000C800	0x00000008	[  1] __ZNSt20__uninitialized_copyILb0EE13__uninit_copyIPKiPiEET0_T_S6_S5_
0x10000C808	0x00000008	[  1] __ZNSt6vectorIiSaIiEE19_M_range_initializeIPKiEEvT_S5_St20forward_iterator_tag
0x10000C810	0x00000008	[  1] __ZNSt6vectorIiSaIiEEC1ESt16initializer_listIiERKS0_
0x10000C818	0x00000008	[  1] __ZNSt9bad_allocC2ERKS_
0x10000C820	0x00000008	[  1] __ZNSt9bad_allocC2Ev
0x10000C828	0x00000008	[  1] __ZNSt9exceptionC2ERKS_
0x10000C830	0x00000008	[  1] __ZNSt9exceptionC2Ev
0x10000C838	0x00000008	[  1] __ZSt10_ConstructIiIRKiEEvPT_DpOT0_
0x10000C840	0x00000008	[  1] __ZSt10__distanceIPKiENSt15iterator_traitsIT_E15difference_typeES3_S3_St26random_access_iterator_tag
0x10000C848	0x00000008	[  1] __ZSt11__addressofIiEPT_RS0_
0x10000C850	0x00000008	[  1] __ZSt18uninitialized_copyIPKiPiET0_T_S4_S3_
0x10000C858	0x00000008	[  1] __ZSt19__iterator_categoryIPKiENSt15iterator_traitsIT_E17iterator_categoryERKS3_
0x10000C860	0x00000008	[  1] __ZSt22__uninitialized_copy_aIPKiPiiET0_T_S4_S3_RSaIT1_E
0x10000C868	0x00000008	[  1] __ZSt7forwardIRKiEOT_RNSt16remove_referenceIS2_E4typeE
0x10000C870	0x00000008	[  1] __ZSt8_DestroyIPiEvT_S1_
0x10000C878	0x00000008	[  1] __ZSt8_DestroyIPiiEvT_S1_RSaIT0_E
0x10000C880	0x00000008	[  1] __ZSt8distanceIPKiENSt15iterator_traitsIT_E15difference_typeES3_S3_
0x10000C888	0x00000008	[  1] __ZnwmPv
0x10000C890	0x00000008	[  2] __ZN5boost6system15system_categoryEv
0x10000C898	0x00000008	[  2] __ZN5boost6system16generic_categoryEv
0x10000C8A0	0x00000008	[  3] __ZNKSs5c_strEv
0x10000C8A8	0x00000008	[  3] __ZNKSs5emptyEv
0x10000C8B0	0x00000008	[  3] __ZNKSt13runtime_error4whatEv
0x10000C8B8	0x00000008	[  3] __ZNSaIcEC1Ev
0x10000C8C0	0x00000008	[  3] __ZNSaIcED1Ev
0x10000C8C8	0x00000008	[  3] __ZNSolsEPFRSoS_E
0x10000C8D0	0x00000008	[  3] __ZNSsC1EPKcRKSaIcE
0x10000C8D8	0x00000008	[  3] __ZNSsC1ERKSs
0x10000C8E0	0x00000008	[  3] __ZNSsC1Ev
0x10000C8E8	0x00000008	[  3] __ZNSsD1Ev
0x10000C8F0	0x00000008	[  3] __ZNSsaSEPKc
0x10000C8F8	0x00000008	[  3] __ZNSspLEPKc
0x10000C900	0x00000008	[  3] __ZNSspLERKSs
0x10000C908	0x00000008	[  3] __ZNSt13bad_exceptionD2Ev
0x10000C910	0x00000008	[  3] __ZNSt13runtime_errorC2ERKSs
0x10000C918	0x00000008	[  3] __ZNSt13runtime_errorD2Ev
0x10000C920	0x00000008	[  3] __ZNSt8ios_base4InitC1Ev
0x10000C928	0x00000008	[  3] __ZNSt9bad_allocD2Ev
0x10000C930	0x00000008	[  3] __ZNSt9exceptionD2Ev
0x10000C938	0x00000008	[  3] __ZSt17__throw_bad_allocv
0x10000C940	0x00000008	[  3] __ZStlsISt11char_traitsIcEERSt13basic_ostreamIcT_ES5_PKc
0x10000C948	0x00000008	[  3] __ZdlPv
0x10000C950	0x00000008	[  3] __Znwm
0x10000C958	0x00000008	[  3] ___cxa_allocate_exception
0x10000C960	0x00000008	[  3] ___cxa_begin_catch
0x10000C968	0x00000008	[  3] ___cxa_call_unexpected
0x10000C970	0x00000008	[  3] ___cxa_end_catch
0x10000C978	0x00000008	[  3] ___cxa_free_exception
0x10000C980	0x00000008	[  3] ___cxa_guard_abort
0x10000C988	0x00000008	[  3] ___cxa_guard_acquire
0x10000C990	0x00000008	[  3] ___cxa_guard_release
0x10000C998	0x00000008	[  3] ___cxa_rethrow
0x10000C9A0	0x00000008	[  3] ___cxa_throw
0x10000C9A8	0x00000008	[  4] __Unwind_Resume
0x10000C9B0	0x00000008	[  4] ___cxa_atexit
0x10000C9B8	0x00000008	[  4] _getchar
0x10000C9C0	0x00000008	[  4] _pthread_key_create
0x10000C9C8	0x00000008	[  4] _pthread_key_delete
0x10000C9D0	0x00000008	[  1] anon
0x10000CA00	0x00000040	[  1] __ZTVN5boost6detail17sp_counted_impl_pINS_16exception_detail10clone_implINS2_14bad_exception_EEEEE
0x10000CA40	0x00000040	[  1] __ZTVN5boost6detail17sp_counted_impl_pINS_16exception_detail10clone_implINS2_10bad_alloc_EEEEE
0x10000CA80	0x00000040	[  1] __ZTVN5boost6detail17sp_counted_impl_pIN8socketio23socketio_client_handlerEEE
0x10000CAC0	0x000000B0	[  1] __ZTVN5boost16exception_detail10clone_implINS0_14bad_exception_EEE
0x10000CB70	0x00000010	[  1] __ZTTN5boost16exception_detail10clone_implINS0_14bad_exception_EEE
0x10000CB80	0x000000B0	[  1] __ZTVN5boost16exception_detail10clone_implINS0_10bad_alloc_EEE
0x10000CC30	0x00000010	[  1] __ZTTN5boost16exception_detail10clone_implINS0_10bad_alloc_EEE
0x10000CC40	0x000000B0	[  1] __ZTVN5boost16exception_detail10clone_implINS0_19error_info_injectorINS_6system12system_errorEEEEE
0x10000CCF0	0x00000010	[  1] __ZTTN5boost16exception_detail10clone_implINS0_19error_info_injectorINS_6system12system_errorEEEEE
0x10000CD00	0x00000080	[  1] __ZTVN5boost16exception_detail19error_info_injectorINS_6system12system_errorEEE
0x10000CD80	0x00000080	[  1] __ZTVN5boost16exception_detail14bad_exception_E
0x10000CE00	0x00000080	[  1] __ZTVN5boost16exception_detail10bad_alloc_E
0x10000CE80	0x00000080	[  1] __ZTVN5boost4asio5error6detail13misc_categoryE
0x10000CF00	0x00000080	[  1] __ZTVN5boost4asio5error6detail17addrinfo_categoryE
0x10000CF80	0x00000060	[  1] __ZTVN5boost4asio5error6detail14netdb_categoryE
0x10000CFE0	0x00000060	[  1] __ZTVN5boost6system12system_errorE
0x10000D040	0x00000080	[  1] __ZTVN5boost6system14error_categoryE
0x10000D0C0	0x00000040	[  1] __ZTVN5boost6detail15sp_counted_baseE
0x10000D100	0x00000040	[  1] __ZTVN5boost16exception_detail10clone_baseE
0x10000D140	0x00000020	[  1] __ZTVN5boost9exceptionE
0x10000D160	0x00000020	[  1] __ZTIN5boost6detail17sp_counted_impl_pINS_16exception_detail10clone_implINS2_14bad_exception_EEEEE
0x10000D180	0x00000020	[  1] __ZTIN5boost6detail17sp_counted_impl_pINS_16exception_detail10clone_implINS2_10bad_alloc_EEEEE
0x10000D1A0	0x00000020	[  1] __ZTIN5boost6detail17sp_counted_impl_pIN8socketio23socketio_client_handlerEEE
0x10000D1C0	0x00000040	[  1] __ZTIN5boost16exception_detail10clone_implINS0_14bad_exception_EEE
0x10000D200	0x00000040	[  1] __ZTIN5boost16exception_detail10clone_implINS0_10bad_alloc_EEE
0x10000D240	0x00000040	[  1] __ZTIN5boost16exception_detail10clone_implINS0_19error_info_injectorINS_6system12system_errorEEEEE
0x10000D280	0x00000040	[  1] __ZTIN5boost16exception_detail19error_info_injectorINS_6system12system_errorEEE
0x10000D2C0	0x00000040	[  1] __ZTIN5boost16exception_detail14bad_exception_E
0x10000D300	0x00000040	[  1] __ZTIN5boost16exception_detail10bad_alloc_E
0x10000D340	0x00000020	[  1] __ZTIN5boost4asio5error6detail13misc_categoryE
0x10000D360	0x00000020	[  1] __ZTIN5boost4asio5error6detail17addrinfo_categoryE
0x10000D380	0x00000020	[  1] __ZTIN5boost4asio5error6detail14netdb_categoryE
0x10000D3A0	0x00000020	[  1] __ZTIN5boost6system12system_errorE
0x10000D3C0	0x00000020	[  1] __ZTIN5boost6system14error_categoryE
0x10000D3E0	0x00000010	[  1] __ZTIN5boost6detail15sp_counted_baseE
0x10000D3F0	0x00000010	[  1] __ZTIN5boost16exception_detail10clone_baseE
0x10000D400	0x00000010	[  1] __ZTIN5boost9exceptionE
0x10000D410	0x00000010	[  1] __ZTIN5boost12noncopyable_11noncopyableE
0x10000D420	0x00000038	[  1] GCC_except_table0
0x10000D458	0x00000004	[  1] GCC_except_table1
0x10000D45C	0x00000038	[  1] GCC_except_table2
0x10000D494	0x00000004	[  1] GCC_except_table3
0x10000D498	0x00000049	[  1] anon
0x10000D4E1	0x0000002B	[  1] GCC_except_table4
0x10000D50C	0x00000052	[  1] GCC_except_table5
0x10000D55E	0x00000038	[  1] GCC_except_table6
0x10000D596	0x00000052	[  1] GCC_except_table7
0x10000D5E8	0x00000058	[  1] GCC_except_table8
0x10000D640	0x00000004	[  1] GCC_except_table9
0x10000D644	0x0000001E	[  1] GCC_except_table10
0x10000D662	0x0000002B	[  1] GCC_except_table11
0x10000D68D	0x0000002B	[  1] GCC_except_table12
0x10000D6B8	0x0000001E	[  1] GCC_except_table13
0x10000D6D6	0x0000002B	[  1] GCC_except_table14
0x10000D701	0x00000004	[  1] GCC_except_table15
0x10000D705	0x0000001E	[  1] GCC_except_table16
0x10000D723	0x0000001E	[  1] GCC_except_table17
0x10000D741	0x00000052	[  1] GCC_except_table18
0x10000D793	0x0000001E	[  1] GCC_except_table19
0x10000D7B1	0x00000052	[  1] GCC_except_table20
0x10000D803	0x0000001E	[  1] GCC_except_table21
0x10000D821	0x0000001E	[  1] GCC_except_table22
0x10000D83F	0x00000004	[  1] GCC_except_table23
0x10000D843	0x0000001E	[  1] GCC_except_table24
0x10000D861	0x00000004	[  1] GCC_except_table25
0x10000D865	0x00000004	[  1] GCC_except_table26
0x10000D869	0x0000002B	[  1] GCC_except_table27
0x10000D894	0x0000001E	[  1] GCC_except_table28
0x10000D8B2	0x0000002B	[  1] GCC_except_table29
0x10000D8DD	0x0000001E	[  1] GCC_except_table30
0x10000D8FB	0x0000002B	[  1] GCC_except_table31
0x10000D926	0x00000002	[  1] GCC_except_table32
0x10000D928	0x00000038	[  1] anon
0x10000D960	0x00000038	[  1] GCC_except_table33
0x10000D998	0x00000038	[  1] GCC_except_table34
0x10000D9D0	0x00000045	[  1] GCC_except_table35
0x10000DA15	0x0000002B	[  1] GCC_except_table36
0x10000DA40	0x0000001E	[  1] GCC_except_table37
0x10000DA5E	0x0000002B	[  1] GCC_except_table38
0x10000DA89	0x0000001E	[  1] GCC_except_table39
0x10000DAA7	0x0000002B	[  1] GCC_except_table40
0x10000DAD2	0x0000001E	[  1] GCC_except_table41
0x10000DAF0	0x0000002B	[  1] GCC_except_table42
0x10000DB1B	0x0000002B	[  1] GCC_except_table43
0x10000DB46	0x0000002B	[  1] GCC_except_table44
0x10000DB78	0x00000008	[  1] __ZGVZN5boost4asio5error18get_netdb_categoryEvE8instance
0x10000DB80	0x00000008	[  1] __ZGVZN5boost4asio5error21get_addrinfo_categoryEvE8instance
0x10000DB88	0x00000008	[  1] __ZGVZN5boost4asio5error17get_misc_categoryEvE8instance
0x10000DB90	0x00000008	[  1] __ZGVZN5boost16exception_detail27get_static_exception_objectINS0_10bad_alloc_EEENS_13exception_ptrEvE2ep
0x10000DB98	0x00000008	[  1] __ZGVZN5boost16exception_detail27get_static_exception_objectINS0_14bad_exception_EEENS_13exception_ptrEvE2ep
0x10000DBA0	0x00000010	[  1] __ZN5boost16exception_detail37exception_ptr_static_exception_objectINS0_10bad_alloc_EE1eE
0x10000DBB0	0x00000010	[  1] __ZN5boost16exception_detail37exception_ptr_static_exception_objectINS0_14bad_exception_EE1eE
0x10000DBC0	0x00000008	[  1] __ZN5boost4asio6detail10call_stackINS1_15task_io_serviceENS1_27task_io_service_thread_infoEE4top_E
0x10000DBC8	0x00000001	[  1] __ZN5boost4asio6detail12service_baseINS1_14kqueue_reactorEE2idE
0x10000DBC9	0x00000007	[  1] __ZN5boost4asio6detail12service_baseINS1_15task_io_serviceEE2idE
0x10000DBD0	0x00000008	[  1] __ZN5boost4asio6detail10call_stackINS1_14strand_service11strand_implEhE4top_E
0x10000DBD8	0x00000001	[  1] __ZN5boost4asio6detail12service_baseINS1_14strand_serviceEE2idE
0x10000DBD9	0x00000007	[  1] __ZN5boost4asio6detail12service_baseINS0_21stream_socket_serviceINS0_2ip3tcpEEEE2idE
0x10000DBE0	0x00000008	[  1] __ZGVN5boost16exception_detail37exception_ptr_static_exception_objectINS0_10bad_alloc_EE1eE
0x10000DBE8	0x00000008	[  1] __ZGVN5boost16exception_detail37exception_ptr_static_exception_objectINS0_14bad_exception_EE1eE
0x10000DBF0	0x00000008	[  1] __ZGVN5boost4asio6detail10call_stackINS1_15task_io_serviceENS1_27task_io_service_thread_infoEE4top_E
0x10000DBF8	0x00000008	[  1] __ZGVN5boost4asio6detail12service_baseINS1_14kqueue_reactorEE2idE
0x10000DC00	0x00000008	[  1] __ZGVN5boost4asio6detail12service_baseINS1_15task_io_serviceEE2idE
0x10000DC08	0x00000008	[  1] __ZGVN5boost4asio6detail10call_stackINS1_14strand_service11strand_implEhE4top_E
0x10000DC10	0x00000008	[  1] __ZGVN5boost4asio6detail12service_baseINS1_14strand_serviceEE2idE
0x10000DC18	0x00000008	[  1] __ZGVN5boost4asio6detail12service_baseINS0_21stream_socket_serviceINS0_2ip3tcpEEEE2idE
0x10000DC20	0x00000008	[  1] __ZZN5boost4asio5error18get_netdb_categoryEvE8instance
0x10000DC28	0x00000008	[  1] __ZZN5boost4asio5error21get_addrinfo_categoryEvE8instance
0x10000DC30	0x00000008	[  1] __ZZN5boost4asio5error17get_misc_categoryEvE8instance
0x10000DC38	0x00000010	[  1] __ZZN5boost16exception_detail27get_static_exception_objectINS0_10bad_alloc_EEENS_13exception_ptrEvE2ep
0x10000DC48	0x00000010	[  1] __ZZN5boost16exception_detail27get_static_exception_objectINS0_14bad_exception_EEENS_13exception_ptrEvE2ep
0x10000DC58	0x00000001	[  1] __ZN12_GLOBAL__N_12_1E
0x10000DC59	0x00000001	[  1] __ZN12_GLOBAL__N_12_2E
0x10000DC5A	0x00000001	[  1] __ZN12_GLOBAL__N_12_3E
0x10000DC5B	0x00000001	[  1] __ZN12_GLOBAL__N_12_4E
0x10000DC5C	0x00000001	[  1] __ZN12_GLOBAL__N_12_5E
0x10000DC5D	0x00000001	[  1] __ZN12_GLOBAL__N_12_6E
0x10000DC5E	0x00000001	[  1] __ZN12_GLOBAL__N_12_7E
0x10000DC5F	0x00000001	[  1] __ZN12_GLOBAL__N_12_8E
0x10000DC60	0x00000001	[  1] __ZN12_GLOBAL__N_12_9E
0x10000DC61	0x00000001	[  1] __ZStL8__ioinit
0x10000DC68	0x00000008	[  1] __ZN5boost6systemL14posix_categoryE
0x10000DC70	0x00000008	[  1] __ZN5boost6systemL10errno_ecatE
0x10000DC78	0x00000008	[  1] __ZN5boost6systemL11native_ecatE
0x10000DC80	0x00000008	[  1] __ZN5boost4asio5errorL15system_categoryE
0x10000DC88	0x00000008	[  1] __ZN5boost4asio5errorL14netdb_categoryE
0x10000DC90	0x00000008	[  1] __ZN5boost4asio5errorL17addrinfo_categoryE
0x10000DC98	0x00000008	[  1] __ZN5boost4asio5errorL13misc_categoryE
0x10000DCA0	0x00000008	[  1] __ZN11websocketpp4httpL12empty_headerE
0x10000DCA8	0x00000008	[  1] __ZN11websocketppL12base64_charsE
0x10000DCB0	0x00000018	[  1] __ZN11websocketppL18versions_supportedE
